******************************************************************************
                  TI ARM Linker Unix v18.12.2                  
******************************************************************************
>> Linked Tue Nov 24 18:42:55 2020

OUTPUT FILE NAME:   <portableNative_CC2640R2_LAUNCHXL_tirtos_ccs.out>
ENTRY POINT SYMBOL: "ResetISR"  address: 00003785


MEMORY CONFIGURATION

         name            origin    length      used     unused   attr    fill
----------------------  --------  ---------  --------  --------  ----  --------
  FLASH                 00000000   00020000  00004f58  0001b0a8  R  X
  SRAM                  20000000   00005000  0000209c  00002f64  RW X


SEGMENT ALLOCATION MAP

run origin  load origin   length   init length attrs members
----------  ----------- ---------- ----------- ----- -------
00000000    00000000    00004f08   00004f08    r-x
  00000000    00000000    0000003c   0000003c    r-- .resetVecs
  0000003c    0000003c    00000fc4   00000fc4    r-x .text.1
  00001000    00001000    00000028   00000028    r-- .const:ti_sysbios_heaps_HeapMem_Module__FXNS__C
  00001028    00001028    00000024   00000024    r-- .const:ti_sysbios_gates_GateHwi_Module__FXNS__C
  0000104c    0000104c    00000024   00000024    r-- .const:ti_sysbios_gates_GateMutex_Module__FXNS__C
  00001070    00001070    00000020   00000020    r-- .const:ti_sysbios_family_arm_m3_Hwi_Object__DESC__C
  00001090    00001090    00000020   00000020    r-- .const:ti_sysbios_gates_GateHwi_Object__DESC__C
  000010b0    000010b0    00000020   00000020    r-- .const:ti_sysbios_gates_GateMutex_Object__DESC__C
  000010d0    000010d0    00000020   00000020    r-- .const:ti_sysbios_hal_Hwi_Object__DESC__C
  000010f0    000010f0    00000020   00000020    r-- .const:ti_sysbios_heaps_HeapMem_Object__DESC__C
  00001110    00001110    00000020   00000020    r-- .const:ti_sysbios_knl_Clock_Object__DESC__C
  00001130    00001130    00000020   00000020    r-- .const:ti_sysbios_knl_Event_Object__DESC__C
  00001150    00001150    00000020   00000020    r-- .const:ti_sysbios_knl_Mailbox_Object__DESC__C
  00001170    00001170    00000020   00000020    r-- .const:ti_sysbios_knl_Queue_Object__DESC__C
  00001190    00001190    00000020   00000020    r-- .const:ti_sysbios_knl_Semaphore_Object__DESC__C
  000011b0    000011b0    00000020   00000020    r-- .const:ti_sysbios_knl_Swi_Object__DESC__C
  000011d0    000011d0    00000020   00000020    r-- .const:ti_sysbios_knl_Task_Object__DESC__C
  000011f0    000011f0    00000008   00000008    r-- .const:ti_sysbios_knl_Idle_funcList__C
  000011f8    000011f8    00000004   00000004    r-- .const:ti_sysbios_family_arm_cc26xx_Timer_startupNeeded__C
  000011fc    000011fc    00000004   00000004    r-- .const:ti_sysbios_family_arm_m3_Hwi_E_alreadyDefined__C
  00001200    00001200    00000004   00000004    r-- .const:ti_sysbios_family_arm_m3_Hwi_E_hwiLimitExceeded__C
  00001204    00001204    00000004   00000004    r-- .const:ti_sysbios_family_arm_m3_Hwi_NUM_INTERRUPTS__C
  00001208    00001208    00000004   00000004    r-- .const:ti_sysbios_family_arm_m3_Hwi_Object__count__C
  0000120c    0000120c    00000004   00000004    r-- .const:ti_sysbios_family_arm_m3_Hwi_Object__table__C
  00001210    00001210    00000004   00000004    r-- .const:ti_sysbios_family_arm_m3_Hwi_ccr__C
  00001214    00001214    00000004   00000004    r-- .const:ti_sysbios_family_arm_m3_Hwi_excHandlerFunc__C
  00001218    00001218    00000004   00000004    r-- .const:ti_sysbios_family_arm_m3_Hwi_nullIsrFunc__C
  0000121c    0000121c    00000004   00000004    r-- .const:ti_sysbios_family_arm_m3_Hwi_numSparseInterrupts__C
  00001220    00001220    00000004   00000004    r-- .const:ti_sysbios_family_arm_m3_Hwi_priGroup__C
  00001224    00001224    00000004   00000004    r-- .const:ti_sysbios_family_arm_m3_TaskSupport_stackAlignment__C
  00001228    00001228    00000004   00000004    r-- .const:ti_sysbios_heaps_HeapMem_E_memory__C
  0000122c    0000122c    00000004   00000004    r-- .const:ti_sysbios_heaps_HeapMem_Module__gateObj__C
  00001230    00001230    00000004   00000004    r-- .const:ti_sysbios_heaps_HeapMem_Object__count__C
  00001234    00001234    00000004   00000004    r-- .const:ti_sysbios_heaps_HeapMem_Object__table__C
  00001238    00001238    00000004   00000004    r-- .const:ti_sysbios_heaps_HeapMem_reqAlign__C
  0000123c    0000123c    00000004   00000004    r-- .const:ti_sysbios_knl_Clock_triggerClock__C
  00001240    00001240    00000004   00000004    r-- .const:ti_sysbios_knl_Mailbox_Object__count__C
  00001244    00001244    00000004   00000004    r-- .const:ti_sysbios_knl_Mailbox_Object__table__C
  00001248    00001248    00000004   00000004    r-- .const:ti_sysbios_knl_Mailbox_maxTypeAlign__C
  0000124c    0000124c    00000004   00000004    r-- .const:ti_sysbios_knl_Queue_Object__count__C
  00001250    00001250    00000004   00000004    r-- .const:ti_sysbios_knl_Queue_Object__table__C
  00001254    00001254    00000004   00000004    r-- .const:ti_sysbios_knl_Semaphore_eventPost__C
  00001258    00001258    00000004   00000004    r-- .const:ti_sysbios_knl_Semaphore_eventSync__C
  0000125c    0000125c    00000004   00000004    r-- .const:ti_sysbios_knl_Swi_Object__count__C
  00001260    00001260    00000004   00000004    r-- .const:ti_sysbios_knl_Swi_Object__table__C
  00001264    00001264    00000004   00000004    r-- .const:ti_sysbios_knl_Swi_numPriorities__C
  00001268    00001268    00000004   00000004    r-- .const:ti_sysbios_knl_Task_Object__count__C
  0000126c    0000126c    00000004   00000004    r-- .const:ti_sysbios_knl_Task_Object__table__C
  00001270    00001270    00000004   00000004    r-- .const:ti_sysbios_knl_Task_allBlockedFunc__C
  00001274    00001274    00000004   00000004    r-- .const:ti_sysbios_knl_Task_defaultStackHeap__C
  00001278    00001278    00000004   00000004    r-- .const:ti_sysbios_knl_Task_defaultStackSize__C
  0000127c    0000127c    00000004   00000004    r-- .const:ti_sysbios_knl_Task_numConstructedTasks__C
  00001280    00001280    00000002   00000002    r-- .const:ti_sysbios_family_arm_cc26xx_Timer_Module__id__C
  00001282    00001282    00000002   00000002    r-- .const:ti_sysbios_family_arm_cc26xx_TimestampProvider_useClockTimer__C
  00001284    00001284    00000002   00000002    r-- .const:ti_sysbios_family_arm_m3_Hwi_Module__id__C
  00001286    00001286    00000002   00000002    r-- .const:ti_sysbios_gates_GateHwi_Module__id__C
  00001288    00001288    00000002   00000002    r-- .const:ti_sysbios_gates_GateMutex_Module__id__C
  0000128a    0000128a    00000002   00000002    r-- .const:ti_sysbios_heaps_HeapMem_Module__id__C
  0000128c    0000128c    00000002   00000002    r-- .const:ti_sysbios_knl_Task_initStackFlag__C
  0000128e    0000128e    00000001   00000001    r-- .const:ti_sysbios_knl_Clock_tickMode__C
  00001290    00001290    00000008   00000008    r-- .const:xdc_runtime_Startup_firstFxns__C
  00001298    00001298    00000008   00000008    r-- .const:xdc_runtime_Startup_lastFxns__C
  000012a0    000012a0    00000004   00000004    r-- .const:xdc_runtime_Assert_E_assertFailed__C
  000012a4    000012a4    00000004   00000004    r-- .const:xdc_runtime_Error_E_memory__C
  000012a8    000012a8    00000004   00000004    r-- .const:xdc_runtime_Error_policyFxn__C
  000012ac    000012ac    00000004   00000004    r-- .const:xdc_runtime_Error_raiseHook__C
  000012b0    000012b0    00000004   00000004    r-- .const:xdc_runtime_IGateProvider_Interface__BASE__C
  000012b4    000012b4    00000004   00000004    r-- .const:xdc_runtime_IHeap_Interface__BASE__C
  000012b8    000012b8    00000004   00000004    r-- .const:xdc_runtime_IModule_Interface__BASE__C
  000012bc    000012bc    00000004   00000004    r-- .const:xdc_runtime_Memory_defaultHeapInstance__C
  000012c0    000012c0    00000004   00000004    r-- .const:xdc_runtime_Startup_execImpl__C
  000012c4    000012c4    00000004   00000004    r-- .const:xdc_runtime_Startup_maxPasses__C
  000012c8    000012c8    00000004   00000004    r-- .const:xdc_runtime_Startup_sfxnRts__C
  000012cc    000012cc    00000004   00000004    r-- .const:xdc_runtime_Startup_sfxnTab__C
  000012d0    000012d0    00000004   00000004    r-- .const:xdc_runtime_Startup_startModsFxn__C
  000012d4    000012d4    00000004   00000004    r-- .const:xdc_runtime_SysCallback_abortFxn__C
  000012d8    000012d8    00000004   00000004    r-- .const:xdc_runtime_SysCallback_exitFxn__C
  000012dc    000012dc    00000004   00000004    r-- .const:xdc_runtime_System_abortFxn__C
  000012e0    000012e0    00000004   00000004    r-- .const:xdc_runtime_System_exitFxn__C
  000012e4    000012e4    00000004   00000004    r-- .const:xdc_runtime_System_maxAtexitHandlers__C
  000012e8    000012e8    00000004   00000004    r-- .const:xdc_runtime_Text_charTab__C
  000012ec    000012ec    00000004   00000004    r-- .const:xdc_runtime_Text_nameEmpty__C
  000012f0    000012f0    00000004   00000004    r-- .const:xdc_runtime_Text_nameStatic__C
  000012f4    000012f4    00000004   00000004    r-- .const:xdc_runtime_Text_nameUnknown__C
  000012f8    000012f8    00000002   00000002    r-- .const:xdc_runtime_Error_maxDepth__C
  000012fa    000012fa    00000002   00000002    r-- .const:xdc_runtime_Memory_Module__id__C
  000012fc    000012fc    00000002   00000002    r-- .const:xdc_runtime_Text_charCnt__C
  000012fe    000012fe    00000002   00000002    r-- .const:xdc_runtime_Text_isLoaded__C
  00001300    00001300    00000001   00000001    r-- .const:xdc_runtime_Error_policy__C
  00001304    00001304    00000004   00000004    r-- .const:ti_sysbios_rom_ROM_ti_sysbios_family_arm_cc26xx_Timer_getCount64__E
  00001308    00001308    00000004   00000004    r-- .const:ti_sysbios_rom_ROM_ti_sysbios_family_arm_cc26xx_Timer_getCurrentTick__E
  0000130c    0000130c    00000004   00000004    r-- .const:ti_sysbios_rom_ROM_ti_sysbios_family_arm_cc26xx_Timer_getMaxTicks__E
  00001310    00001310    00000004   00000004    r-- .const:ti_sysbios_rom_ROM_ti_sysbios_family_arm_cc26xx_Timer_initDevice__I
  00001314    00001314    00000004   00000004    r-- .const:ti_sysbios_rom_ROM_ti_sysbios_family_arm_cc26xx_Timer_setNextTick__E
  00001318    00001318    00000004   00000004    r-- .const:ti_sysbios_rom_ROM_ti_sysbios_family_arm_cc26xx_Timer_setThreshold__I
  0000131c    0000131c    00000004   00000004    r-- .const:ti_sysbios_rom_ROM_ti_sysbios_family_arm_cc26xx_Timer_start__E
  00001320    00001320    00000004   00000004    r-- .const:ti_sysbios_rom_ROM_ti_sysbios_family_arm_cc26xx_TimestampProvider_get32__E
  00001324    00001324    00000004   00000004    r-- .const:ti_sysbios_rom_ROM_xdc_runtime_Startup_getState__I
  00001328    00001328    00000004   00000004    r-- .const:ti_sysbios_rom_ROM_xdc_runtime_System_SupportProxy_abort__E
  0000132c    0000132c    00000004   00000004    r-- .const:ti_sysbios_rom_ROM_xdc_runtime_System_SupportProxy_exit__E
  00001330    00001330    00003580   00003580    r-x .text.2
  000048b0    000048b0    000003cc   000003cc    r-- .const
  00004c80    00004c80    00000288   00000288    r-- .cinit
0001ffa8    0001ffa8    00000058   00000058    r--
  0001ffa8    0001ffa8    00000058   00000058    r-- .ccfg
20000100    20000100    00000106   00000000    rw-
  20000100    20000100    00000044   00000000    rw- .data:ti_sysbios_knl_Task_Module__state__V
  20000144    20000144    00000034   00000000    rw- .data:ti_sysbios_family_arm_m3_Hwi_Module__state__V
  20000178    20000178    0000002c   00000000    rw- .data:ti_sysbios_knl_Clock_Module__state__V
  200001a4    200001a4    00000024   00000000    rw- .data:ti_sysbios_BIOS_Module__state__V
  200001c8    200001c8    0000001c   00000000    rw- .data:ti_sysbios_knl_Swi_Module__state__V
  200001e4    200001e4    00000008   00000000    rw- .data:ti_sysbios_family_arm_cc26xx_Timer_Module__state__V
  200001ec    200001ec    00000004   00000000    rw- .data:ti_sysbios_family_arm_cc26xx_TimestampProvider_Module__state__V
  200001f0    200001f0    00000008   00000000    rw- .data:xdc_runtime_Startup_Module__state__V
  200001f8    200001f8    00000008   00000000    rw- .data:xdc_runtime_System_Module__state__V
  20000200    20000200    00000004   00000000    rw- .data:xdc_runtime_Memory_Module__state__V
  20000204    20000204    00000002   00000000    rw- .data:xdc_runtime_Error_Module__state__V
20000208    20000208    00001000   00000000    r--
  20000208    20000208    00001000   00000000    r-- .priheap
20001208    20001208    00000ad1   00000000    rw-
  20001208    20001208    0000059d   00000000    rw- .data
  200017a8    200017a8    00000531   00000000    rw- .bss
20004c00    20004c00    00000400   00000000    rw-
  20004c00    20004c00    00000400   00000000    rw- .stack


SECTION ALLOCATION MAP

 output                                  attributes/
section   page    origin      length       input sections
--------  ----  ----------  ----------   ----------------
.const:ti_sysbios_heaps_HeapMem_Module__FXNS__C 
*          0    00001000    00000028     
                  00001000    00000028     release_pem3.oem3 (.const:ti_sysbios_heaps_HeapMem_Module__FXNS__C)

.const:ti_sysbios_gates_GateHwi_Module__FXNS__C 
*          0    00001028    00000024     
                  00001028    00000024     release_pem3.oem3 (.const:ti_sysbios_gates_GateHwi_Module__FXNS__C)

.const:ti_sysbios_gates_GateMutex_Module__FXNS__C 
*          0    0000104c    00000024     
                  0000104c    00000024     release_pem3.oem3 (.const:ti_sysbios_gates_GateMutex_Module__FXNS__C)

.const:ti_sysbios_family_arm_m3_Hwi_Object__DESC__C 
*          0    00001070    00000020     
                  00001070    00000020     release_pem3.oem3 (.const:ti_sysbios_family_arm_m3_Hwi_Object__DESC__C)

.const:ti_sysbios_gates_GateHwi_Object__DESC__C 
*          0    00001090    00000020     
                  00001090    00000020     release_pem3.oem3 (.const:ti_sysbios_gates_GateHwi_Object__DESC__C)

.const:ti_sysbios_gates_GateMutex_Object__DESC__C 
*          0    000010b0    00000020     
                  000010b0    00000020     release_pem3.oem3 (.const:ti_sysbios_gates_GateMutex_Object__DESC__C)

.const:ti_sysbios_hal_Hwi_Object__DESC__C 
*          0    000010d0    00000020     
                  000010d0    00000020     release_pem3.oem3 (.const:ti_sysbios_hal_Hwi_Object__DESC__C)

.const:ti_sysbios_heaps_HeapMem_Object__DESC__C 
*          0    000010f0    00000020     
                  000010f0    00000020     release_pem3.oem3 (.const:ti_sysbios_heaps_HeapMem_Object__DESC__C)

.const:ti_sysbios_knl_Clock_Object__DESC__C 
*          0    00001110    00000020     
                  00001110    00000020     release_pem3.oem3 (.const:ti_sysbios_knl_Clock_Object__DESC__C)

.const:ti_sysbios_knl_Event_Object__DESC__C 
*          0    00001130    00000020     
                  00001130    00000020     release_pem3.oem3 (.const:ti_sysbios_knl_Event_Object__DESC__C)

.const:ti_sysbios_knl_Mailbox_Object__DESC__C 
*          0    00001150    00000020     
                  00001150    00000020     release_pem3.oem3 (.const:ti_sysbios_knl_Mailbox_Object__DESC__C)

.const:ti_sysbios_knl_Queue_Object__DESC__C 
*          0    00001170    00000020     
                  00001170    00000020     release_pem3.oem3 (.const:ti_sysbios_knl_Queue_Object__DESC__C)

.const:ti_sysbios_knl_Semaphore_Object__DESC__C 
*          0    00001190    00000020     
                  00001190    00000020     release_pem3.oem3 (.const:ti_sysbios_knl_Semaphore_Object__DESC__C)

.const:ti_sysbios_knl_Swi_Object__DESC__C 
*          0    000011b0    00000020     
                  000011b0    00000020     release_pem3.oem3 (.const:ti_sysbios_knl_Swi_Object__DESC__C)

.const:ti_sysbios_knl_Task_Object__DESC__C 
*          0    000011d0    00000020     
                  000011d0    00000020     release_pem3.oem3 (.const:ti_sysbios_knl_Task_Object__DESC__C)

.const:ti_sysbios_knl_Idle_funcList__C 
*          0    000011f0    00000008     
                  000011f0    00000008     release_pem3.oem3 (.const:ti_sysbios_knl_Idle_funcList__C)

.const:ti_sysbios_family_arm_cc26xx_Timer_startupNeeded__C 
*          0    000011f8    00000004     
                  000011f8    00000004     release_pem3.oem3 (.const:ti_sysbios_family_arm_cc26xx_Timer_startupNeeded__C)

.const:ti_sysbios_family_arm_m3_Hwi_E_alreadyDefined__C 
*          0    000011fc    00000004     
                  000011fc    00000004     release_pem3.oem3 (.const:ti_sysbios_family_arm_m3_Hwi_E_alreadyDefined__C)

.const:ti_sysbios_family_arm_m3_Hwi_E_hwiLimitExceeded__C 
*          0    00001200    00000004     
                  00001200    00000004     release_pem3.oem3 (.const:ti_sysbios_family_arm_m3_Hwi_E_hwiLimitExceeded__C)

.const:ti_sysbios_family_arm_m3_Hwi_NUM_INTERRUPTS__C 
*          0    00001204    00000004     
                  00001204    00000004     release_pem3.oem3 (.const:ti_sysbios_family_arm_m3_Hwi_NUM_INTERRUPTS__C)

.const:ti_sysbios_family_arm_m3_Hwi_Object__count__C 
*          0    00001208    00000004     
                  00001208    00000004     release_pem3.oem3 (.const:ti_sysbios_family_arm_m3_Hwi_Object__count__C)

.const:ti_sysbios_family_arm_m3_Hwi_Object__table__C 
*          0    0000120c    00000004     
                  0000120c    00000004     release_pem3.oem3 (.const:ti_sysbios_family_arm_m3_Hwi_Object__table__C)

.const:ti_sysbios_family_arm_m3_Hwi_ccr__C 
*          0    00001210    00000004     
                  00001210    00000004     release_pem3.oem3 (.const:ti_sysbios_family_arm_m3_Hwi_ccr__C)

.const:ti_sysbios_family_arm_m3_Hwi_excHandlerFunc__C 
*          0    00001214    00000004     
                  00001214    00000004     release_pem3.oem3 (.const:ti_sysbios_family_arm_m3_Hwi_excHandlerFunc__C)

.const:ti_sysbios_family_arm_m3_Hwi_nullIsrFunc__C 
*          0    00001218    00000004     
                  00001218    00000004     release_pem3.oem3 (.const:ti_sysbios_family_arm_m3_Hwi_nullIsrFunc__C)

.const:ti_sysbios_family_arm_m3_Hwi_numSparseInterrupts__C 
*          0    0000121c    00000004     
                  0000121c    00000004     release_pem3.oem3 (.const:ti_sysbios_family_arm_m3_Hwi_numSparseInterrupts__C)

.const:ti_sysbios_family_arm_m3_Hwi_priGroup__C 
*          0    00001220    00000004     
                  00001220    00000004     release_pem3.oem3 (.const:ti_sysbios_family_arm_m3_Hwi_priGroup__C)

.const:ti_sysbios_family_arm_m3_TaskSupport_stackAlignment__C 
*          0    00001224    00000004     
                  00001224    00000004     release_pem3.oem3 (.const:ti_sysbios_family_arm_m3_TaskSupport_stackAlignment__C)

.const:ti_sysbios_heaps_HeapMem_E_memory__C 
*          0    00001228    00000004     
                  00001228    00000004     release_pem3.oem3 (.const:ti_sysbios_heaps_HeapMem_E_memory__C)

.const:ti_sysbios_heaps_HeapMem_Module__gateObj__C 
*          0    0000122c    00000004     
                  0000122c    00000004     release_pem3.oem3 (.const:ti_sysbios_heaps_HeapMem_Module__gateObj__C)

.const:ti_sysbios_heaps_HeapMem_Object__count__C 
*          0    00001230    00000004     
                  00001230    00000004     release_pem3.oem3 (.const:ti_sysbios_heaps_HeapMem_Object__count__C)

.const:ti_sysbios_heaps_HeapMem_Object__table__C 
*          0    00001234    00000004     
                  00001234    00000004     release_pem3.oem3 (.const:ti_sysbios_heaps_HeapMem_Object__table__C)

.const:ti_sysbios_heaps_HeapMem_reqAlign__C 
*          0    00001238    00000004     
                  00001238    00000004     release_pem3.oem3 (.const:ti_sysbios_heaps_HeapMem_reqAlign__C)

.const:ti_sysbios_knl_Clock_triggerClock__C 
*          0    0000123c    00000004     
                  0000123c    00000004     release_pem3.oem3 (.const:ti_sysbios_knl_Clock_triggerClock__C)

.const:ti_sysbios_knl_Mailbox_Object__count__C 
*          0    00001240    00000004     
                  00001240    00000004     release_pem3.oem3 (.const:ti_sysbios_knl_Mailbox_Object__count__C)

.const:ti_sysbios_knl_Mailbox_Object__table__C 
*          0    00001244    00000004     
                  00001244    00000004     release_pem3.oem3 (.const:ti_sysbios_knl_Mailbox_Object__table__C)

.const:ti_sysbios_knl_Mailbox_maxTypeAlign__C 
*          0    00001248    00000004     
                  00001248    00000004     release_pem3.oem3 (.const:ti_sysbios_knl_Mailbox_maxTypeAlign__C)

.const:ti_sysbios_knl_Queue_Object__count__C 
*          0    0000124c    00000004     
                  0000124c    00000004     release_pem3.oem3 (.const:ti_sysbios_knl_Queue_Object__count__C)

.const:ti_sysbios_knl_Queue_Object__table__C 
*          0    00001250    00000004     
                  00001250    00000004     release_pem3.oem3 (.const:ti_sysbios_knl_Queue_Object__table__C)

.const:ti_sysbios_knl_Semaphore_eventPost__C 
*          0    00001254    00000004     
                  00001254    00000004     release_pem3.oem3 (.const:ti_sysbios_knl_Semaphore_eventPost__C)

.const:ti_sysbios_knl_Semaphore_eventSync__C 
*          0    00001258    00000004     
                  00001258    00000004     release_pem3.oem3 (.const:ti_sysbios_knl_Semaphore_eventSync__C)

.const:ti_sysbios_knl_Swi_Object__count__C 
*          0    0000125c    00000004     
                  0000125c    00000004     release_pem3.oem3 (.const:ti_sysbios_knl_Swi_Object__count__C)

.const:ti_sysbios_knl_Swi_Object__table__C 
*          0    00001260    00000004     
                  00001260    00000004     release_pem3.oem3 (.const:ti_sysbios_knl_Swi_Object__table__C)

.const:ti_sysbios_knl_Swi_numPriorities__C 
*          0    00001264    00000004     
                  00001264    00000004     release_pem3.oem3 (.const:ti_sysbios_knl_Swi_numPriorities__C)

.const:ti_sysbios_knl_Task_Object__count__C 
*          0    00001268    00000004     
                  00001268    00000004     release_pem3.oem3 (.const:ti_sysbios_knl_Task_Object__count__C)

.const:ti_sysbios_knl_Task_Object__table__C 
*          0    0000126c    00000004     
                  0000126c    00000004     release_pem3.oem3 (.const:ti_sysbios_knl_Task_Object__table__C)

.const:ti_sysbios_knl_Task_allBlockedFunc__C 
*          0    00001270    00000004     
                  00001270    00000004     release_pem3.oem3 (.const:ti_sysbios_knl_Task_allBlockedFunc__C)

.const:ti_sysbios_knl_Task_defaultStackHeap__C 
*          0    00001274    00000004     
                  00001274    00000004     release_pem3.oem3 (.const:ti_sysbios_knl_Task_defaultStackHeap__C)

.const:ti_sysbios_knl_Task_defaultStackSize__C 
*          0    00001278    00000004     
                  00001278    00000004     release_pem3.oem3 (.const:ti_sysbios_knl_Task_defaultStackSize__C)

.const:ti_sysbios_knl_Task_numConstructedTasks__C 
*          0    0000127c    00000004     
                  0000127c    00000004     release_pem3.oem3 (.const:ti_sysbios_knl_Task_numConstructedTasks__C)

.const:ti_sysbios_family_arm_cc26xx_Timer_Module__id__C 
*          0    00001280    00000002     
                  00001280    00000002     release_pem3.oem3 (.const:ti_sysbios_family_arm_cc26xx_Timer_Module__id__C)

.const:ti_sysbios_family_arm_cc26xx_TimestampProvider_useClockTimer__C 
*          0    00001282    00000002     
                  00001282    00000002     release_pem3.oem3 (.const:ti_sysbios_family_arm_cc26xx_TimestampProvider_useClockTimer__C)

.const:ti_sysbios_family_arm_m3_Hwi_Module__id__C 
*          0    00001284    00000002     
                  00001284    00000002     release_pem3.oem3 (.const:ti_sysbios_family_arm_m3_Hwi_Module__id__C)

.const:ti_sysbios_gates_GateHwi_Module__id__C 
*          0    00001286    00000002     
                  00001286    00000002     release_pem3.oem3 (.const:ti_sysbios_gates_GateHwi_Module__id__C)

.const:ti_sysbios_gates_GateMutex_Module__id__C 
*          0    00001288    00000002     
                  00001288    00000002     release_pem3.oem3 (.const:ti_sysbios_gates_GateMutex_Module__id__C)

.const:ti_sysbios_heaps_HeapMem_Module__id__C 
*          0    0000128a    00000002     
                  0000128a    00000002     release_pem3.oem3 (.const:ti_sysbios_heaps_HeapMem_Module__id__C)

.const:ti_sysbios_knl_Task_initStackFlag__C 
*          0    0000128c    00000002     
                  0000128c    00000002     release_pem3.oem3 (.const:ti_sysbios_knl_Task_initStackFlag__C)

.const:ti_sysbios_knl_Clock_tickMode__C 
*          0    0000128e    00000001     
                  0000128e    00000001     release_pem3.oem3 (.const:ti_sysbios_knl_Clock_tickMode__C)

.const:xdc_runtime_Startup_firstFxns__C 
*          0    00001290    00000008     
                  00001290    00000008     release_pem3.oem3 (.const:xdc_runtime_Startup_firstFxns__C)

.const:xdc_runtime_Startup_lastFxns__C 
*          0    00001298    00000008     
                  00001298    00000008     release_pem3.oem3 (.const:xdc_runtime_Startup_lastFxns__C)

.const:xdc_runtime_Assert_E_assertFailed__C 
*          0    000012a0    00000004     
                  000012a0    00000004     release_pem3.oem3 (.const:xdc_runtime_Assert_E_assertFailed__C)

.const:xdc_runtime_Error_E_memory__C 
*          0    000012a4    00000004     
                  000012a4    00000004     release_pem3.oem3 (.const:xdc_runtime_Error_E_memory__C)

.const:xdc_runtime_Error_policyFxn__C 
*          0    000012a8    00000004     
                  000012a8    00000004     release_pem3.oem3 (.const:xdc_runtime_Error_policyFxn__C)

.const:xdc_runtime_Error_raiseHook__C 
*          0    000012ac    00000004     
                  000012ac    00000004     release_pem3.oem3 (.const:xdc_runtime_Error_raiseHook__C)

.const:xdc_runtime_IGateProvider_Interface__BASE__C 
*          0    000012b0    00000004     
                  000012b0    00000004     release_pem3.oem3 (.const:xdc_runtime_IGateProvider_Interface__BASE__C)

.const:xdc_runtime_IHeap_Interface__BASE__C 
*          0    000012b4    00000004     
                  000012b4    00000004     release_pem3.oem3 (.const:xdc_runtime_IHeap_Interface__BASE__C)

.const:xdc_runtime_IModule_Interface__BASE__C 
*          0    000012b8    00000004     
                  000012b8    00000004     release_pem3.oem3 (.const:xdc_runtime_IModule_Interface__BASE__C)

.const:xdc_runtime_Memory_defaultHeapInstance__C 
*          0    000012bc    00000004     
                  000012bc    00000004     release_pem3.oem3 (.const:xdc_runtime_Memory_defaultHeapInstance__C)

.const:xdc_runtime_Startup_execImpl__C 
*          0    000012c0    00000004     
                  000012c0    00000004     release_pem3.oem3 (.const:xdc_runtime_Startup_execImpl__C)

.const:xdc_runtime_Startup_maxPasses__C 
*          0    000012c4    00000004     
                  000012c4    00000004     release_pem3.oem3 (.const:xdc_runtime_Startup_maxPasses__C)

.const:xdc_runtime_Startup_sfxnRts__C 
*          0    000012c8    00000004     
                  000012c8    00000004     release_pem3.oem3 (.const:xdc_runtime_Startup_sfxnRts__C)

.const:xdc_runtime_Startup_sfxnTab__C 
*          0    000012cc    00000004     
                  000012cc    00000004     release_pem3.oem3 (.const:xdc_runtime_Startup_sfxnTab__C)

.const:xdc_runtime_Startup_startModsFxn__C 
*          0    000012d0    00000004     
                  000012d0    00000004     release_pem3.oem3 (.const:xdc_runtime_Startup_startModsFxn__C)

.const:xdc_runtime_SysCallback_abortFxn__C 
*          0    000012d4    00000004     
                  000012d4    00000004     release_pem3.oem3 (.const:xdc_runtime_SysCallback_abortFxn__C)

.const:xdc_runtime_SysCallback_exitFxn__C 
*          0    000012d8    00000004     
                  000012d8    00000004     release_pem3.oem3 (.const:xdc_runtime_SysCallback_exitFxn__C)

.const:xdc_runtime_System_abortFxn__C 
*          0    000012dc    00000004     
                  000012dc    00000004     release_pem3.oem3 (.const:xdc_runtime_System_abortFxn__C)

.const:xdc_runtime_System_exitFxn__C 
*          0    000012e0    00000004     
                  000012e0    00000004     release_pem3.oem3 (.const:xdc_runtime_System_exitFxn__C)

.const:xdc_runtime_System_maxAtexitHandlers__C 
*          0    000012e4    00000004     
                  000012e4    00000004     release_pem3.oem3 (.const:xdc_runtime_System_maxAtexitHandlers__C)

.const:xdc_runtime_Text_charTab__C 
*          0    000012e8    00000004     
                  000012e8    00000004     release_pem3.oem3 (.const:xdc_runtime_Text_charTab__C)

.const:xdc_runtime_Text_nameEmpty__C 
*          0    000012ec    00000004     
                  000012ec    00000004     release_pem3.oem3 (.const:xdc_runtime_Text_nameEmpty__C)

.const:xdc_runtime_Text_nameStatic__C 
*          0    000012f0    00000004     
                  000012f0    00000004     release_pem3.oem3 (.const:xdc_runtime_Text_nameStatic__C)

.const:xdc_runtime_Text_nameUnknown__C 
*          0    000012f4    00000004     
                  000012f4    00000004     release_pem3.oem3 (.const:xdc_runtime_Text_nameUnknown__C)

.const:xdc_runtime_Error_maxDepth__C 
*          0    000012f8    00000002     
                  000012f8    00000002     release_pem3.oem3 (.const:xdc_runtime_Error_maxDepth__C)

.const:xdc_runtime_Memory_Module__id__C 
*          0    000012fa    00000002     
                  000012fa    00000002     release_pem3.oem3 (.const:xdc_runtime_Memory_Module__id__C)

.const:xdc_runtime_Text_charCnt__C 
*          0    000012fc    00000002     
                  000012fc    00000002     release_pem3.oem3 (.const:xdc_runtime_Text_charCnt__C)

.const:xdc_runtime_Text_isLoaded__C 
*          0    000012fe    00000002     
                  000012fe    00000002     release_pem3.oem3 (.const:xdc_runtime_Text_isLoaded__C)

.const:xdc_runtime_Error_policy__C 
*          0    00001300    00000001     
                  00001300    00000001     release_pem3.oem3 (.const:xdc_runtime_Error_policy__C)

.const:ti_sysbios_rom_ROM_ti_sysbios_family_arm_cc26xx_Timer_getCount64__E 
*          0    00001304    00000004     
                  00001304    00000004     release_pem3.oem3 (.const:ti_sysbios_rom_ROM_ti_sysbios_family_arm_cc26xx_Timer_getCount64__E)

.const:ti_sysbios_rom_ROM_ti_sysbios_family_arm_cc26xx_Timer_getCurrentTick__E 
*          0    00001308    00000004     
                  00001308    00000004     release_pem3.oem3 (.const:ti_sysbios_rom_ROM_ti_sysbios_family_arm_cc26xx_Timer_getCurrentTick__E)

.const:ti_sysbios_rom_ROM_ti_sysbios_family_arm_cc26xx_Timer_getMaxTicks__E 
*          0    0000130c    00000004     
                  0000130c    00000004     release_pem3.oem3 (.const:ti_sysbios_rom_ROM_ti_sysbios_family_arm_cc26xx_Timer_getMaxTicks__E)

.const:ti_sysbios_rom_ROM_ti_sysbios_family_arm_cc26xx_Timer_initDevice__I 
*          0    00001310    00000004     
                  00001310    00000004     release_pem3.oem3 (.const:ti_sysbios_rom_ROM_ti_sysbios_family_arm_cc26xx_Timer_initDevice__I)

.const:ti_sysbios_rom_ROM_ti_sysbios_family_arm_cc26xx_Timer_setNextTick__E 
*          0    00001314    00000004     
                  00001314    00000004     release_pem3.oem3 (.const:ti_sysbios_rom_ROM_ti_sysbios_family_arm_cc26xx_Timer_setNextTick__E)

.const:ti_sysbios_rom_ROM_ti_sysbios_family_arm_cc26xx_Timer_setThreshold__I 
*          0    00001318    00000004     
                  00001318    00000004     release_pem3.oem3 (.const:ti_sysbios_rom_ROM_ti_sysbios_family_arm_cc26xx_Timer_setThreshold__I)

.const:ti_sysbios_rom_ROM_ti_sysbios_family_arm_cc26xx_Timer_start__E 
*          0    0000131c    00000004     
                  0000131c    00000004     release_pem3.oem3 (.const:ti_sysbios_rom_ROM_ti_sysbios_family_arm_cc26xx_Timer_start__E)

.const:ti_sysbios_rom_ROM_ti_sysbios_family_arm_cc26xx_TimestampProvider_get32__E 
*          0    00001320    00000004     
                  00001320    00000004     release_pem3.oem3 (.const:ti_sysbios_rom_ROM_ti_sysbios_family_arm_cc26xx_TimestampProvider_get32__E)

.const:ti_sysbios_rom_ROM_xdc_runtime_Startup_getState__I 
*          0    00001324    00000004     
                  00001324    00000004     release_pem3.oem3 (.const:ti_sysbios_rom_ROM_xdc_runtime_Startup_getState__I)

.const:ti_sysbios_rom_ROM_xdc_runtime_System_SupportProxy_abort__E 
*          0    00001328    00000004     
                  00001328    00000004     release_pem3.oem3 (.const:ti_sysbios_rom_ROM_xdc_runtime_System_SupportProxy_abort__E)

.const:ti_sysbios_rom_ROM_xdc_runtime_System_SupportProxy_exit__E 
*          0    0000132c    00000004     
                  0000132c    00000004     release_pem3.oem3 (.const:ti_sysbios_rom_ROM_xdc_runtime_System_SupportProxy_exit__E)

.cinit     0    00004c80    00000288     
                  00004c80    00000143     (.cinit..data.load) [load image, compression = lzss]
                  00004dc3    00000028     (.cinit..data:ti_sysbios_family_arm_m3_Hwi_Module__state__V.load) [load image, compression = lzss]
                  00004deb    00000021     (.cinit..data:ti_sysbios_knl_Task_Module__state__V.load) [load image, compression = lzss]
                  00004e0c    0000001f     (.cinit..data:ti_sysbios_BIOS_Module__state__V.load) [load image, compression = lzss]
                  00004e2b    0000001d     (.cinit..data:ti_sysbios_knl_Clock_Module__state__V.load) [load image, compression = lzss]
                  00004e48    00000010     (.cinit..data:ti_sysbios_knl_Swi_Module__state__V.load) [load image, compression = lzss]
                  00004e58    0000000c     (__TI_handler_table)
                  00004e64    0000000b     (.cinit..data:ti_sysbios_family_arm_cc26xx_Timer_Module__state__V.load) [load image, compression = lzss]
                  00004e6f    0000000b     (.cinit..data:xdc_runtime_System_Module__state__V.load) [load image, compression = lzss]
                  00004e7a    00000006     (.cinit..data:xdc_runtime_Error_Module__state__V.load) [load image, compression = lzss]
                  00004e80    00000008     (.cinit..bss.load) [load image, compression = zero_init]
                  00004e88    00000008     (.cinit..data:xdc_runtime_Memory_Module__state__V.load) [load image, compression = lzss]
                  00004e90    00000007     (.cinit..data:ti_sysbios_family_arm_cc26xx_TimestampProvider_Module__state__V.load) [load image, compression = lzss]
                  00004e97    00000007     (.cinit..data:xdc_runtime_Startup_Module__state__V.load) [load image, compression = lzss]
                  00004e9e    00000002     --HOLE-- [fill = 0]
                  00004ea0    00000068     (__TI_cinit_table)

.init_array 
*          0    00000000    00000000     UNINITIALIZED

.ccfg      0    0001ffa8    00000058     
                  0001ffa8    00000058     ccfg.obj (.ccfg:retain)

.data:ti_sysbios_knl_Task_Module__state__V 
*          0    20000100    00000044     UNINITIALIZED
                  20000100    00000044     release_pem3.oem3 (.data:ti_sysbios_knl_Task_Module__state__V)

.data:ti_sysbios_family_arm_m3_Hwi_Module__state__V 
*          0    20000144    00000034     UNINITIALIZED
                  20000144    00000034     release_pem3.oem3 (.data:ti_sysbios_family_arm_m3_Hwi_Module__state__V)

.data:ti_sysbios_knl_Clock_Module__state__V 
*          0    20000178    0000002c     UNINITIALIZED
                  20000178    0000002c     release_pem3.oem3 (.data:ti_sysbios_knl_Clock_Module__state__V)

.data:ti_sysbios_BIOS_Module__state__V 
*          0    200001a4    00000024     UNINITIALIZED
                  200001a4    00000024     release_pem3.oem3 (.data:ti_sysbios_BIOS_Module__state__V)

.data:ti_sysbios_knl_Swi_Module__state__V 
*          0    200001c8    0000001c     UNINITIALIZED
                  200001c8    0000001c     release_pem3.oem3 (.data:ti_sysbios_knl_Swi_Module__state__V)

.data:ti_sysbios_family_arm_cc26xx_Timer_Module__state__V 
*          0    200001e4    00000008     UNINITIALIZED
                  200001e4    00000008     release_pem3.oem3 (.data:ti_sysbios_family_arm_cc26xx_Timer_Module__state__V)

.data:ti_sysbios_family_arm_cc26xx_TimestampProvider_Module__state__V 
*          0    200001ec    00000004     UNINITIALIZED
                  200001ec    00000004     release_pem3.oem3 (.data:ti_sysbios_family_arm_cc26xx_TimestampProvider_Module__state__V)

.data:xdc_runtime_Startup_Module__state__V 
*          0    200001f0    00000008     UNINITIALIZED
                  200001f0    00000008     release_pem3.oem3 (.data:xdc_runtime_Startup_Module__state__V)

.data:xdc_runtime_System_Module__state__V 
*          0    200001f8    00000008     UNINITIALIZED
                  200001f8    00000008     release_pem3.oem3 (.data:xdc_runtime_System_Module__state__V)

.data:xdc_runtime_Memory_Module__state__V 
*          0    20000200    00000004     UNINITIALIZED
                  20000200    00000004     release_pem3.oem3 (.data:xdc_runtime_Memory_Module__state__V)

.data:xdc_runtime_Error_Module__state__V 
*          0    20000204    00000002     UNINITIALIZED
                  20000204    00000002     release_pem3.oem3 (.data:xdc_runtime_Error_Module__state__V)

.data      0    20001208    0000059d     UNINITIALIZED
                  20001208    00000114     drivers_cc26x0r2.aem3 : PINCC26XX.oem3 (.data:$O1$$)
                  2000131c    00000114                           : PowerCC26XX.oem3 (.data:PowerCC26XX_module)
                  20001430    00000088     rom_sysbios.aem3 : rom_sysbios.obj (.data:$O1$$)
                  200014b8    00000054     release_pem3.oem3 (.data:ti_sysbios_gates_GateMutex_Object__table__V)
                  2000150c    0000004c     release_pem3.oem3 (.data:ti_sysbios_knl_Task_Object__table__V)
                  20001558    00000048     release_pem3.oem3 (.data:ti_sysbios_family_arm_cc26xx_Timer_Object__table__V)
                  200015a0    00000040     drivers_cc26x0r2.aem3 : GPIOCC26XX.oem3 (.data:$O1$$)
                  200015e0    00000030     CC2640R2_LAUNCHXL.obj (.data:gpioPinConfigs)
                  20001610    00000030     release_pem3.oem3 (.data:ti_sysbios_knl_Swi_Module_State_0_readyQ__A)
                  20001640    00000030     release_pem3.oem3 (.data:ti_sysbios_knl_Swi_Object__table__V)
                  20001670    00000030     release_pem3.oem3 (.data:ti_sysbios_knl_Task_Module_State_0_readyQ__A)
                  200016a0    00000020     release_pem3.oem3 (.data:ti_sysbios_knl_Clock_Object__table__V)
                  200016c0    00000020     release_pem3.oem3 (.data:xdc_runtime_Error_IgnoreBlock)
                  200016e0    00000018     release_pem3.oem3 (.data:ti_sysbios_family_arm_m3_Hwi_Object__table__V)
                  200016f8    00000018     release_pem3.oem3 (.data:ti_sysbios_heaps_HeapMem_Object__table__V)
                  20001710    00000010     CC2640R2_LAUNCHXL.obj (.data:gpioCallbackFunctions)
                  20001720    00000008     rtsv7M3_T_le_eabi.lib : _lock.c.obj (.data:$O1$$)
                  20001728    00000008     release_pem3.oem3 (.data:ti_sysbios_family_arm_m3_Hwi_Module__root__V)
                  20001730    00000008     release_pem3.oem3 (.data:ti_sysbios_gates_GateHwi_Module__root__V)
                  20001738    00000008     release_pem3.oem3 (.data:ti_sysbios_gates_GateMutex_Module__root__V)
                  20001740    00000008     release_pem3.oem3 (.data:ti_sysbios_hal_Hwi_Module__root__V)
                  20001748    00000008     release_pem3.oem3 (.data:ti_sysbios_heaps_HeapMem_Module__root__V)
                  20001750    00000008     release_pem3.oem3 (.data:ti_sysbios_knl_Clock_Module__root__V)
                  20001758    00000008     release_pem3.oem3 (.data:ti_sysbios_knl_Event_Module__root__V)
                  20001760    00000008     release_pem3.oem3 (.data:ti_sysbios_knl_Mailbox_Module__root__V)
                  20001768    00000008     release_pem3.oem3 (.data:ti_sysbios_knl_Queue_Module__root__V)
                  20001770    00000008     release_pem3.oem3 (.data:ti_sysbios_knl_Semaphore_Module__root__V)
                  20001778    00000008     release_pem3.oem3 (.data:ti_sysbios_knl_Swi_Module__root__V)
                  20001780    00000008     release_pem3.oem3 (.data:ti_sysbios_knl_Task_Module__root__V)
                  20001788    00000008     release_pem3.oem3 (.data:xdc_runtime_System_Module_State_0_atexitHandlers__A)
                  20001790    00000004     rtsv7M3_T_le_eabi.lib : stkdepth_vars.c.obj (.data)
                  20001794    00000004     release_pem3.oem3 (.data:ti_sysbios_family_arm_m3_Hwi_Module_State_0_excContext__A)
                  20001798    00000004     release_pem3.oem3 (.data:ti_sysbios_family_arm_m3_Hwi_Module_State_0_excStack__A)
                  2000179c    00000004     release_pem3.oem3 (.data:ti_sysbios_knl_Task_Module_State_0_idleTask__A)
                  200017a0    00000002     release_pem3.oem3 (.data:ti_sysbios_family_arm_m3_Hwi_Module_State_0_excActive__A)
                  200017a2    00000001     console_tirtos.obj (.data)
                  200017a3    00000001     drivers_cc26x0r2.aem3 : I2C.oem3 (.data)
                  200017a4    00000001                           : UART.oem3 (.data)

.bss       0    200017a8    00000531     UNINITIALIZED
                  200017a8    00000200     release_pem3.oem3 (.bss:taskStackSection)
                  200019a8    0000012c     (.common:uartCC26XXObjects)
                  20001ad4    000000e0     (.common:i2cCC26xxObjects)
                  20001bb4    000000c8     (.common:ti_sysbios_family_arm_m3_Hwi_dispatchTable)
                  20001c7c    00000020     (.common:uartCC26XXRingBuffer)
                  20001c9c    00000014     driverlib.lib : osc.obj (.bss:oscHfGlobals)
                  20001cb0    00000008     dpl_cc26x0r2.aem3 : PowerCC26XX_tirtos.oem3 (.bss:$O1$$)
                  20001cb8    00000008     driverlib.lib : sys_ctrl.obj (.bss:powerQualGlobals)
                  20001cc0    00000004     (.common:ClockP_tickPeriod)
                  20001cc4    00000004     (.common:consoleHandle)
                  20001cc8    00000004     (.common:consoleSem)
                  20001ccc    00000004     (.common:temperatureC)
                  20001cd0    00000004     (.common:temperatureF)
                  20001cd4    00000004     (.common:temperatureHandle)
                  20001cd8    00000001     (.common:driverlib_release_0_56883)

.priheap   0    20000208    00001000     UNINITIALIZED
                  20000208    00001000     --HOLE--

.stack     0    20004c00    00000400     UNINITIALIZED
                  20004c00    00000400     --HOLE--

.bootVecs 
*          0    00000000    00000008     DSECT
                  00000000    00000008     boot.aem3 : boot.oem3 (.bootVecs)

.resetVecs 
*          0    00000000    0000003c     
                  00000000    0000003c     release_pem3.oem3 (.resetVecs)

.vecs      0    20000000    000000c8     NOLOAD SECTION
                  20000000    000000c8     release_pem3.oem3 (.vecs)

xdc.meta   0    00000000    000000fd     COPY SECTION
                  00000000    000000fd     release_pem3.oem3 (xdc.meta)

xdc.noload 
*          0    00000000    00000000     COPY SECTION

.binit     0    00000000    00000000     

.text.1    0    0000003c    00000fc4     
                  0000003c    00000314     drivers_cc26x0r2.aem3 : PowerCC26XX_calibrateRCOSC.oem3 (.text:PowerCC26XX_auxISR)
                  00000350    0000022c                           : PowerCC26XX.oem3 (.text:Power_sleep)
                  0000057c    00000008     (.tramp.ti_sysbios_knl_Swi_restore__E.1)
                  00000584    00000220     driverlib.lib : sys_ctrl.obj (.text:NOROM_SysCtrlSetRechargeBeforePowerDown)
                  000007a4    000001b0     drivers_cc26x0r2.aem3 : PINCC26XX.oem3 (.text:PIN_init)
                  00000954    00000190                           : PowerCC26XX_calibrateRCOSC.oem3 (.text:PowerCC26XX_doCalibrate)
                  00000ae4    0000015c                           : UARTCC26XX.oem3 (.text:UARTCC26XX_open)
                  00000c40    00000008     (.tramp.ti_sysbios_family_arm_m3_Hwi_restoreFxn__E.1)
                  00000c48    0000014c                           : I2CCC26XX.oem3 (.text:I2CCC26XX_open)
                  00000d94    00000148                           : UARTCC26XX.oem3 (.text:UARTCC26XX_hwiIntFxn)
                  00000edc    0000011c     console_tirtos.obj (.text:simpleConsole)
                  00000ff8    00000008     (.tramp.ti_sysbios_family_arm_m3_Hwi_disableFxn__E.1)

.text.2    0    00001330    00003580     
                  00001330    00000138     temperature_tirtos.obj (.text:temperatureThread)
                  00001468    00000136     drivers_cc26x0r2.aem3 : UARTCC26XX.oem3 (.text:UARTCC26XX_read)
                  0000159e    00000002     rtsv7M3_T_le_eabi.lib : _lock.c.obj (.text:_nop)
                  000015a0    0000012c     drivers_cc26x0r2.aem3 : PowerCC26XX.oem3 (.text:Power_init)
                  000016cc    00000114                           : I2CCC26XX.oem3 (.text:I2CCC26XX_hwiFxn)
                  000017e0    00000110                           : GPIOCC26XX.oem3 (.text:GPIO_setConfig)
                  000018f0    000000fa     rtsv7M3_T_le_eabi.lib : fs_add_t2.asm.obj (.text)
                  000019ea    00000002     drivers_cc26x0r2.aem3 : PowerCC26XX.oem3 (.text:emptyClockFunc)
                  000019ec    000000f0                           : PINCC26XX.oem3 (.text:PINCC26XX_setIoCfg)
                  00001adc    000000e8     dpl_cc26x0r2.aem3 : PowerCC26XX_tirtos.oem3 (.text:PowerCC26XX_standbyPolicy)
                  00001bc4    000000e2     drivers_cc26x0r2.aem3 : UARTCC26XX.oem3 (.text:UARTCC26XX_write)
                  00001ca6    000000d6                           : I2CCC26XX.oem3 (.text:I2CCC26XX_transfer)
                  00001d7c    000000bc                           : PowerCC26XX.oem3 (.text:Power_releaseDependency)
                  00001e38    000000b4                           : PowerCC26XX.oem3 (.text:Power_setDependency)
                  00001eec    000000ac     driverlib.lib : setup.obj (.text:NOROM_SetupTrimDevice)
                  00001f98    000000a8     drivers_cc26x0r2.aem3 : GPIOCC26XX.oem3 (.text:GPIO_init)
                  00002040    000000a4                           : PowerCC26XX.oem3 (.text:switchXOSCHFclockFunc)
                  000020e4    000000a0                           : PINCC26XX.oem3 (.text:PIN_open)
                  00002184    000000a0     auto_init.aem3 : auto_init.oem3 (.text)
                  00002224    0000009c     console_tirtos.obj (.text:consoleThread)
                  000022c0    0000009c     rtsv7M3_T_le_eabi.lib : memcpy_t2.asm.obj (.text)
                  0000235c    00000098     drivers_cc26x0r2.aem3 : UARTCC26XX.oem3 (.text:UARTCC26XX_initHw)
                  000023f4    00000098                           : UARTCC26XX.oem3 (.text:UARTCC26XX_initIO)
                  0000248c    00000098     rom_sysbios.aem3 : rom_sysbios.obj (.text:ti_sysbios_knl_Clock_workFuncDynamic__E)
                  00002524    00000096     rtsv7M3_T_le_eabi.lib : ull_div_t2.asm.obj (.text)
                  000025ba    00000092                           : fs_div_t2.asm.obj (.text)
                  0000264c    00000090     drivers_cc26x0r2.aem3 : I2CCC26XX.oem3 (.text:I2CCC26XX_cancel)
                  000026dc    00000090     driverlib.lib : setup.obj (.text:TrimAfterColdResetWakeupFromShutDown)
                  0000276c    00000090     rom_sysbios.aem3 : rom_sysbios.obj (.text:ti_sysbios_family_arm_cc26xx_Timer_start__E)
                  000027fc    0000008e     drivers_cc26x0r2.aem3 : UARTCC26XX.oem3 (.text:UARTCC26XX_writeCancel)
                  0000288a    00000002     rtsv7M3_T_le_eabi.lib : div0.asm.obj (.text)
                  0000288c    0000008c     drivers_cc26x0r2.aem3 : I2CCC26XX.oem3 (.text:I2CCC26XX_primeTransfer)
                  00002918    00000084     CC2640R2_LAUNCHXL_fxns.obj (.text:CC2640R2_LAUNCHXL_sendExtFlashByte)
                  0000299c    00000084     drivers_cc26x0r2.aem3 : UARTCC26XX.oem3 (.text:UARTCC26XX_close)
                  00002a20    00000080                           : UARTCC26XX.oem3 (.text:writeTxFifoFlush)
                  00002aa0    0000007a     rtsv7M3_T_le_eabi.lib : fs_mul_t2.asm.obj (.text)
                  00002b1a    0000007a                           : memset_t2.asm.obj (.text)
                  00002b94    00000070     driverlib.lib : sys_ctrl.obj (.text:NOROM_SysCtrlAdjustRechargeAfterPowerDown)
                  00002c04    00000070     drivers_cc26x0r2.aem3 : PowerCC26XX.oem3 (.text:lfClockReadyCallback)
                  00002c74    0000006c     driverlib.lib : osc.obj (.text:NOROM_OSCHF_AttemptToSwitchToXosc)
                  00002ce0    0000006c     drivers_cc26x0r2.aem3 : PowerCC26XX_calibrateRCOSC.oem3 (.text:PowerCC26XX_initiateCalibration)
                  00002d4c    0000006c                           : PowerCC26XX.oem3 (.text:configureXOSCHF)
                  00002db8    0000006c     main_tirtos.obj (.text:main)
                  00002e24    00000068     drivers_cc26x0r2.aem3 : I2CCC26XX.oem3 (.text:I2CCC26XX_swiFxn)
                  00002e8c    00000068     driverlib.lib : sys_ctrl.obj (.text:NOROM_SysCtrl_DCDC_VoltageConditionalControl)
                  00002ef4    00000068     drivers_cc26x0r2.aem3 : PINCC26XX.oem3 (.text:PIN_add)
                  00002f5c    00000068     rtsv7M3_T_le_eabi.lib : copy_decompress_lzss.c.obj (.text:decompress:lzss:__TI_decompress_lzss)
                  00002fc4    00000062     console_tirtos.obj (.text:itoa)
                  00003026    00000002     release_pem3.oem3 (.text:ti_sysbios_BIOS_nullFunc__I)
                  00003028    00000060     drivers_cc26x0r2.aem3 : PowerCC26XX.oem3 (.text:PowerCC26XX_calibrate)
                  00003088    00000060     temperature_tirtos.obj (.text:setupTimer)
                  000030e8    0000005e     drivers_cc26x0r2.aem3 : UARTCC26XX.oem3 (.text:UARTCC26XX_swiIntFxn)
                  00003146    00000002     rom_sysbios.aem3 : rom_sysbios.obj (.text:xdc_runtime_SysCallback_defaultAbort)
                  00003148    0000005c     drivers_cc26x0r2.aem3 : I2CCC26XX.oem3 (.text:I2CCC26XX_close)
                  000031a4    0000005c                           : PowerCC26XX_calibrateRCOSC.oem3 (.text:PowerCC26XX_RCOSC_clockFunc)
                  00003200    0000005c     rom_sysbios.aem3 : rom_sysbios.obj (.text:ti_sysbios_heaps_HeapMem_initPrimary__I)
                  0000325c    0000005c     release_pem3.oem3 (.text:xdc_runtime_Startup_getState__I)
                  000032b8    00000058     drivers_cc26x0r2.aem3 : PINCC26XX.oem3 (.text:PIN_remove)
                  00003310    00000058                           : UARTCC26XX.oem3 (.text:UARTCC26XX_control)
                  00003368    00000056     console_tirtos.obj (.text:reverse)
                  000033be    00000002     rom_sysbios.aem3 : rom_sysbios.obj (.text:xdc_runtime_SysCallback_defaultExit)
                  000033c0    00000054     drivers_cc26x0r2.aem3 : GPIOCC26XX.oem3 (.text:GPIO_write)
                  00003414    00000050     dpl_cc26x0r2.aem3 : ClockP_tirtos.oem3 (.text:ClockP_construct)
                  00003464    00000050     drivers_cc26x0r2.aem3 : UARTCC26XX.oem3 (.text:startTxFifoEmptyClk)
                  000034b4    0000004c     CC2640R2_LAUNCHXL_fxns.obj (.text:CC2640R2_LAUNCHXL_wakeUpExtFlash)
                  00003500    0000004c     rtsv7M3_T_le_eabi.lib : cpy_tbl.c.obj (.text:copy_in)
                  0000354c    0000004a     drivers_cc26x0r2.aem3 : UARTCC26XX.oem3 (.text:UARTCC26XX_readCancel)
                  00003596    00000002     --HOLE-- [fill = 0]
                  00003598    00000048                           : GPIOCC26XX.oem3 (.text:GPIO_enableInt)
                  000035e0    00000048                           : PINCC26XX.oem3 (.text:PIN_setOutputEnable)
                  00003628    00000048     rom_sysbios.aem3 : rom_sysbios.obj (.text:ti_sysbios_family_arm_cc26xx_Timer_setThreshold__I)
                  00003670    00000048     drivers_cc26x0r2.aem3 : UARTCC26XX.oem3 (.text:writeFinishedDoCallback)
                  000036b8    00000044                           : I2CCC26XX.oem3 (.text:I2CCC26XX_initHw)
                  000036fc    00000044     driverlib.lib : osc.obj (.text:NOROM_OSCHF_SwitchToRcOscTurnOffXosc)
                  00003740    00000044     drivers_cc26x0r2.aem3 : RingBuf.oem3 (.text:RingBuf_put)
                  00003784    00000044     boot.aem3 : boot.oem3 (.text)
                  000037c8    00000040     CC2640R2_LAUNCHXL_fxns.obj (.text:CC2640R2_LAUNCHXL_shutDownExtFlash)
                  00003808    00000040     drivers_cc26x0r2.aem3 : I2C.oem3 (.text:I2C_init)
                  00003848    00000040                           : I2C.oem3 (.text:I2C_open)
                  00003888    00000040                           : PINCC26XX.oem3 (.text:PIN_swi)
                  000038c8    00000040                           : UART.oem3 (.text:UART_init)
                  00003908    00000040                           : UART.oem3 (.text:UART_open)
                  00003948    0000003e     dpl_cc26x0r2.aem3 : HwiP_tirtos.oem3 (.text:HwiP_construct)
                  00003986    0000003e     drivers_cc26x0r2.aem3 : RingBuf.oem3 (.text:RingBuf_get)
                  000039c4    0000003c                           : GPIOCC26XX.oem3 (.text:GPIO_setCallback)
                  00003a00    0000003c     driverlib.lib : i2c.obj (.text:NOROM_I2CMasterInitExpClk)
                  00003a3c    0000003c                   : osc.obj (.text:NOROM_OSC_HPOSCRelativeFrequencyOffsetGet)
                  00003a78    0000003c     dpl_cc26x0r2.aem3 : SwiP_tirtos.oem3 (.text:SwiP_construct)
                  00003ab4    0000003c     drivers_cc26x0r2.aem3 : PowerCC26XX.oem3 (.text:disableLfClkQualifiersEnableClkLoss)
                  00003af0    0000003c     rom_sysbios.aem3 : rom_sysbios.obj (.text:sleep)
                  00003b2c    0000003c                      : rom_sysbios.obj (.text:ti_sysbios_family_arm_m3_Hwi_construct2__E)
                  00003b68    00000038     drivers_cc26x0r2.aem3 : PINCC26XX.oem3 (.text:PIN_setConfig)
                  00003ba0    00000038                           : PINCC26XX.oem3 (.text:PIN_setInterrupt)
                  00003bd8    00000038                           : PINCC26XX.oem3 (.text:PIN_setOutputValue)
                  00003c10    00000038     rtsv7M3_T_le_eabi.lib : fs_toi_t2.asm.obj (.text)
                  00003c48    00000038                           : i_tofs_t2.asm.obj (.text)
                  00003c80    00000036     rom_sysbios.aem3 : rom_sysbios.obj (.text:ti_sysbios_family_arm_cc26xx_Timer_setNextTick__E)
                  00003cb6    00000002     --HOLE-- [fill = 0]
                  00003cb8    00000034     drivers_cc26x0r2.aem3 : PowerCC26XX.oem3 (.text:Power_releaseConstraint)
                  00003cec    00000034                           : PowerCC26XX.oem3 (.text:notify)
                  00003d20    00000034     rom_sysbios.aem3 : rom_sysbios.obj (.text:ti_sysbios_family_arm_cc26xx_Timer_initDevice__I)
                  00003d54    00000030     drivers_cc26x0r2.aem3 : GPIOCC26XX.oem3 (.text:GPIO_hwiIntFxn)
                  00003d84    00000030                           : PINCC26XX.oem3 (.text:PINCC26XX_setMux)
                  00003db4    00000030                           : PowerCC26XX.oem3 (.text:Power_setConstraint)
                  00003de4    00000030     release_pem3.oem3 (.text:ti_sysbios_BIOS_atExitFunc__I)
                  00003e14    00000030     release_pem3.oem3 (.text:ti_sysbios_BIOS_startFunc__I)
                  00003e44    00000030     rom_sysbios.aem3 : rom_sysbios.obj (.text:ti_sysbios_family_arm_cc26xx_Timer_getCurrentTick__E)
                  00003e74    0000002e     drivers_cc26x0r2.aem3 : UARTCC26XX.oem3 (.text:readData)
                  00003ea2    0000002e                           : UARTCC26XX.oem3 (.text:writeData)
                  00003ed0    0000002c     driverlib.lib : chipinfo.obj (.text:NOROM_ChipInfo_GetChipFamily)
                  00003efc    0000002c     dpl_cc26x0r2.aem3 : SemaphoreP_tirtos.oem3 (.text:SemaphoreP_constructBinary)
                  00003f28    0000002c                       : SemaphoreP_tirtos.oem3 (.text:SemaphoreP_createBinary)
                  00003f54    0000002c     rom_sysbios.aem3 : rom_sysbios.obj (.text:_pthread_delete$44)
                  00003f80    0000002c                      : rom_sysbios.obj (.text:ti_sysbios_knl_Clock_getTicksUntilInterrupt__E)
                  00003fac    00000028     driverlib.lib : chipinfo.obj (.text:NOROM_ChipInfo_GetChipType)
                  00003fd4    00000028     drivers_cc26x0r2.aem3 : PowerCC26XX.oem3 (.text:Power_registerNotify)
                  00003ffc    00000028     driverlib.lib : adi.obj (.text:SafeHapiVoid)
                  00004024    00000028     drivers_cc26x0r2.aem3 : UARTCC26XX.oem3 (.text:readData2RingBuf)
                  0000404c    00000024                           : List.oem3 (.text:List_remove)
                  00004070    00000024     driverlib.lib : osc.obj (.text:NOROM_OSCHF_TurnOnXosc)
                  00004094    00000024     rom_sysbios.aem3 : rom_sysbios.obj (.text:_pthread_cleanupFxn)
                  000040b8    00000024     console_tirtos.obj (.text:gpioButtonFxn)
                  000040dc    00000024     release_pem3.oem3 (.text:ti_sysbios_BIOS_registerRTSLock__I)
                  00004100    00000024     release_pem3.oem3 (.text:ti_sysbios_BIOS_removeRTSLock__I)
                  00004124    00000024     rom_sysbios.aem3 : rom_sysbios.obj (.text:ti_sysbios_family_arm_cc26xx_Timer_getMaxTicks__E)
                  00004148    00000022     drivers_cc26x0r2.aem3 : List.oem3 (.text:List_put)
                  0000416a    00000022     driverlib.lib : uart.obj (.text:NOROM_UARTConfigSetExpClk)
                  0000418c    00000020                   : i2c.obj (.text:NOROM_I2CMasterErr)
                  000041ac    00000020                   : uart.obj (.text:NOROM_UARTDisable)
                  000041cc    00000020     drivers_cc26x0r2.aem3 : PINCC26XX.oem3 (.text:PINCC26XX_setIoCfgMux)
                  000041ec    00000020                           : PowerCC26XX.oem3 (.text:Power_unregisterNotify)
                  0000420c    00000020                           : UARTCC26XX.oem3 (.text:threadSafeStdbyDisRelease)
                  0000422c    00000020                           : UARTCC26XX.oem3 (.text:threadSafeStdbyDisSet)
                  0000424c    00000020     release_pem3.oem3 (.text:ti_sysbios_BIOS_rtsLock__I)
                  0000426c    00000020     rom_sysbios.aem3 : rom_sysbios.obj (.text:ti_sysbios_family_arm_cc26xx_Timer_dynamicStub__E)
                  0000428c    00000020                      : rom_sysbios.obj (.text:xdc_runtime_Error_policyMin__E)
                  000042ac    0000001e     drivers_cc26x0r2.aem3 : PINCC26XX.oem3 (.text:PIN_close)
                  000042ca    0000001e                           : PowerCC26XX.oem3 (.text:Power_getTransitionLatency)
                  000042e8    0000001c     CC2640R2_LAUNCHXL.obj (.text:CC2640R2_LAUNCHXL_initGeneral)
                  00004304    0000001c     drivers_cc26x0r2.aem3 : PINCC26XX.oem3 (.text:PIN_hwi)
                  00004320    0000001c     rom_sysbios.aem3 : rom_sysbios.obj (.text:ti_sysbios_knl_Swi_construct2__E)
                  0000433c    00000018     driverlib.lib : chipinfo.obj (.text:NOROM_ChipInfo_GetPackageType)
                  00004354    00000018     dpl_cc26x0r2.aem3 : PowerCC26XX_tirtos.oem3 (.text:PowerCC26XX_schedulerDisable)
                  0000436c    00000018                       : PowerCC26XX_tirtos.oem3 (.text:PowerCC26XX_schedulerRestore)
                  00004384    00000018     drivers_cc26x0r2.aem3 : PowerCC26XX.oem3 (.text:Power_idleFunc)
                  0000439c    00000018                           : UART.oem3 (.text:UART_Params_init)
                  000043b4    00000018     rtsv7M3_T_le_eabi.lib : args_main.c.obj (.text:_args_main)
                  000043cc    00000018                           : ll_mul_t2.asm.obj (.text)
                  000043e4    00000018     release_pem3.oem3 (.text:ti_sysbios_BIOS_rtsUnlock__I)
                  000043fc    00000018     rom_sysbios.aem3 : rom_sysbios.obj (.text:ti_sysbios_knl_Swi_or__E)
                  00004414    00000016     release_pem3.oem3 (.text:ti_sysbios_BIOS_errorRaiseHook__I)
                  0000442a    00000016     release_pem3.oem3 (.text:ti_sysbios_BIOS_exitFunc__I)
                  00004440    00000016     temperature_tirtos.obj (.text:ti_sysbios_knl_Clock_Params_init)
                  00004456    00000016     main_tirtos.obj (.text:ti_sysbios_knl_Task_Params_init)
                  0000446c    00000014     drivers_cc26x0r2.aem3 : PowerCC26XX.oem3 (.text:configureRFCoreClocks)
                  00004480    00000014     rtsv7M3_T_le_eabi.lib : strlen.c.obj (.text:strlen)
                  00004494    00000014     rom_sysbios.aem3 : rom_sysbios.obj (.text:ti_sysbios_family_arm_cc26xx_Timer_getCount64__E)
                  000044a8    00000014     release_pem3.oem3 (.text:ti_sysbios_knl_Clock_doTick__I)
                  000044bc    00000012     drivers_cc26x0r2.aem3 : RingBuf.oem3 (.text:RingBuf_construct)
                  000044ce    00000012     dpl_cc26x0r2.aem3 : SemaphoreP_tirtos.oem3 (.text:SemaphoreP_pend)
                  000044e0    00000012     release_pem3.oem3 (.text:xdc_runtime_Startup_exec__I)
                  000044f2    00000010     dpl_cc26x0r2.aem3 : HwiP_tirtos.oem3 (.text:HwiP_Params_init)
                  00004502    00000002     --HOLE-- [fill = 0]
                  00004504    00000010     drivers_cc26x0r2.aem3 : I2C.oem3 (.text:I2C_Params_init)
                  00004514    00000010                           : PINCC26XX.oem3 (.text:PINCC26XX_getPinCount)
                  00004524    00000010     dpl_cc26x0r2.aem3 : SwiP_tirtos.oem3 (.text:SwiP_Params_init)
                  00004534    00000010     drivers_cc26x0r2.aem3 : I2CCC26XX.oem3 (.text:i2cPostNotify)
                  00004544    00000010                           : UARTCC26XX.oem3 (.text:uartPostNotify)
                  00004554    0000000e     driverlib.lib : chipinfo.obj (.text:NOROM_ThisLibraryIsFor_CC26x0R2_HaltIfViolated)
                  00004562    0000000e                   : uart.obj (.text:NOROM_UARTCharGetNonBlocking)
                  00004570    0000000e                   : uart.obj (.text:NOROM_UARTCharPutNonBlocking)
                  0000457e    0000000e     temperature_tirtos.obj (.text:clearAlert)
                  0000458c    0000000e     rtsv7M3_T_le_eabi.lib : copy_decompress_none.c.obj (.text:decompress:none:__TI_decompress_none)
                  0000459a    0000000e     temperature_tirtos.obj (.text:sendAlert)
                  000045a8    0000000e     rom_sysbios.aem3 : rom_sysbios.obj (.text:ti_sysbios_family_arm_cc26xx_TimestampProvider_get32__E)
                  000045b6    0000000c     driverlib.lib : cpu.obj (.text:NOROM_CPUcpsid)
                  000045c2    0000000c                   : cpu.obj (.text:NOROM_CPUcpsie)
                  000045ce    0000000c                   : osc.obj (.text:NOROM_OSC_HPOSCRelativeFrequencyOffsetToRFCoreFormatConvert)
                  000045da    0000000c     drivers_cc26x0r2.aem3 : PINCC26XX.oem3 (.text:PIN_registerIntCb)
                  000045e6    00000002     --HOLE-- [fill = 0]
                  000045e8    0000000c                           : PowerCC26XX.oem3 (.text:Power_getConstraintMask)
                  000045f4    0000000c                           : PowerCC26XX.oem3 (.text:Power_getDependencyCount)
                  00004600    0000000c     dpl_cc26x0r2.aem3 : SemaphoreP_tirtos.oem3 (.text:SemaphoreP_delete)
                  0000460c    0000000c     rtsv7M3_T_le_eabi.lib : _lock.c.obj (.text:_register_lock)
                  00004618    0000000c                           : _lock.c.obj (.text:_register_unlock)
                  00004624    0000000c                           : copy_zero_init.c.obj (.text:decompress:ZI:__TI_zero_init)
                  00004630    0000000c     temperature_tirtos.obj (.text:postSem)
                  0000463c    0000000c     rom_sysbios.aem3 : rom_sysbios.obj (.text:ti_sysbios_knl_Swi_getTrigger__E)
                  00004648    0000000a     dpl_cc26x0r2.aem3 : ClockP_tirtos.oem3 (.text:ClockP_Params_init)
                  00004652    0000000a     drivers_cc26x0r2.aem3 : I2CCC26XX.oem3 (.text:I2CCC26XX_init)
                  0000465c    0000000a                           : I2C.oem3 (.text:I2C_transfer)
                  00004666    0000000a                           : UART.oem3 (.text:UART_close)
                  00004670    0000000a                           : UART.oem3 (.text:UART_read)
                  0000467a    0000000a                           : UART.oem3 (.text:UART_write)
                  00004684    00000008     CC2640R2_LAUNCHXL.obj (.text:Board_init)
                  0000468c    00000008     CC2640R2_LAUNCHXL_fxns.obj (.text:Board_initHook)
                  00004694    00000008     drivers_cc26x0r2.aem3 : I2CCC26XX.oem3 (.text:I2CCC26XX_blockingCallback)
                  0000469c    00000008                           : UARTCC26XX.oem3 (.text:UARTCC26XX_init)
                  000046a4    00000008                           : UARTCC26XX.oem3 (.text:readSemCallback)
                  000046ac    00000008                           : UARTCC26XX.oem3 (.text:writeSemCallback)
                  000046b4    00000006                           : I2CCC26XX.oem3 (.text:I2CCC26XX_control)
                  000046ba    00000006     driverlib.lib : cpu.obj (.text:NOROM_CPUdelay)
                  000046c0    00000006     drivers_cc26x0r2.aem3 : UARTCC26XX.oem3 (.text:UARTCC26XX_readPolling)
                  000046c6    00000006                           : UARTCC26XX.oem3 (.text:UARTCC26XX_writePolling)
                  000046cc    00000004     dpl_cc26x0r2.aem3 : PowerCC26XX_tirtos.oem3 (.text:CPUwfi)
                  000046d0    00000004                       : ClockP_tirtos.oem3 (.text:ClockP_destruct)
                  000046d4    00000004                       : ClockP_tirtos.oem3 (.text:ClockP_getCpuFreq)
                  000046d8    00000004                       : ClockP_tirtos.oem3 (.text:ClockP_setTimeout)
                  000046dc    00000004                       : ClockP_tirtos.oem3 (.text:ClockP_start)
                  000046e0    00000004                       : ClockP_tirtos.oem3 (.text:ClockP_stop)
                  000046e4    00000004                       : HwiP_tirtos.oem3 (.text:HwiP_destruct)
                  000046e8    00000004                       : HwiP_tirtos.oem3 (.text:HwiP_disable)
                  000046ec    00000004                       : HwiP_tirtos.oem3 (.text:HwiP_disableInterrupt)
                  000046f0    00000004                       : HwiP_tirtos.oem3 (.text:HwiP_enableInterrupt)
                  000046f4    00000004                       : SemaphoreP_tirtos.oem3 (.text:SemaphoreP_destruct)
                  000046f8    00000004                       : SemaphoreP_tirtos.oem3 (.text:SemaphoreP_post)
                  000046fc    00000004                       : SwiP_tirtos.oem3 (.text:SwiP_destruct)
                  00004700    00000004                       : SwiP_tirtos.oem3 (.text:SwiP_disable)
                  00004704    00000004                       : SwiP_tirtos.oem3 (.text:SwiP_getTrigger)
                  00004708    00000004                       : SwiP_tirtos.oem3 (.text:SwiP_or)
                  0000470c    00000004                       : SwiP_tirtos.oem3 (.text:SwiP_post)
                  00004710    00000004     drivers_cc26x0r2.aem3 : PowerCC26XX.oem3 (.text:nopResourceHandler)
                  00004714    00000004     release_pem3.oem3 (.text:xdc_runtime_Startup_reset__I)
                  00004718    00000008     (.tramp.ti_sysbios_knl_Swi_destruct.1)
                  00004720    00000008     (.tramp.ti_sysbios_family_arm_m3_Hwi_enableInterrupt__E.1)
                  00004728    00000008     (.tramp.ti_sysbios_family_arm_m3_Hwi_disableInterrupt__E.1)
                  00004730    00000008     (.tramp.ti_sysbios_family_arm_m3_Hwi_destruct.1)
                  00004738    00000008     (.tramp.ti_sysbios_BIOS_getCpuFreq__E.1)
                  00004740    00000008     (.tramp.ti_sysbios_knl_Clock_destruct.1)
                  00004748    00000008     (.tramp.xdc_runtime_Startup_startMods__I.1)
                  00004750    00000008     (.tramp.ti_sysbios_knl_Clock_logTick__E.1)
                  00004758    00000008     (.tramp.ti_sysbios_knl_Task_Params__init__S.1)
                  00004760    00000008     (.tramp.ti_sysbios_knl_Swi_post__E.1)
                  00004768    00000008     (.tramp.ti_sysbios_BIOS_RtsGateProxy_leave__E.1)
                  00004770    00000008     (.tramp.ti_sysbios_knl_Swi_construct.1)
                  00004778    00000008     (.tramp.ti_sysbios_BIOS_RtsGateProxy_enter__E.1)
                  00004780    00000008     (.tramp.ti_sysbios_knl_Semaphore_post__E.1)
                  00004788    00000008     (.tramp.ti_sysbios_knl_Task_restore__E.1)
                  00004790    00000008     (.tramp.xdc_runtime_Memory_free__E.1)
                  00004798    00000008     (.tramp.ti_sysbios_knl_Task_delete.1)
                  000047a0    00000008     (.tramp.ti_sysbios_knl_Semaphore_destruct.1)
                  000047a8    00000008     (.tramp.ti_sysbios_knl_Semaphore_construct.1)
                  000047b0    00000008     (.tramp.ti_sysbios_knl_Semaphore_Params__init__S.1)
                  000047b8    00000008     (.tramp.ti_sysbios_knl_Task_startup__E.1)
                  000047c0    00000008     (.tramp.ti_sysbios_knl_Swi_startup__E.1)
                  000047c8    00000008     (.tramp.ti_sysbios_hal_Hwi_startup__E.1)
                  000047d0    00000008     (.tramp.ti_sysbios_family_arm_cc26xx_Timer_startup__E.1)
                  000047d8    00000008     (.tramp.xdc_runtime_System_atexit__E.1)
                  000047e0    00000008     (.tramp.ti_sysbios_BIOS_linkedWithIncorrectBootLibrary__E.1)
                  000047e8    00000008     (.tramp.xdc_runtime_Startup_rtsDone__E.1)
                  000047f0    00000008     (.tramp.ti_sysbios_BIOS_setThreadType__E.1)
                  000047f8    00000008     (.tramp.ti_sysbios_knl_Task_disable__E.1)
                  00004800    00000008     (.tramp.ti_sysbios_knl_Swi_disable__E.1)
                  00004808    00000008     (.tramp.ti_sysbios_family_arm_m3_Hwi_construct.1)
                  00004810    00000008     (.tramp.ti_sysbios_knl_Task_sleep__E.1)
                  00004818    00000008     (.tramp.ti_sysbios_knl_Swi_Params__init__S.1)
                  00004820    00000008     (.tramp.ti_sysbios_family_arm_m3_Hwi_Params__init__S.1)
                  00004828    00000008     (.tramp.xdc_runtime_System_exit__E.1)
                  00004830    00000008     (.tramp.ti_sysbios_knl_Clock_construct.1)
                  00004838    00000008     (.tramp.ti_sysbios_knl_Clock_Params__init__S.1)
                  00004840    00000008     (.tramp.ti_sysbios_heaps_HeapMem_restore__E.1)
                  00004848    00000008     (.tramp.ti_sysbios_heaps_HeapMem_Object__get__S.1)
                  00004850    00000008     (.tramp.ti_sysbios_knl_Semaphore_delete.1)
                  00004858    00000008     (.tramp.ti_sysbios_knl_Clock_create.1)
                  00004860    00000008     (.tramp.ti_sysbios_BIOS_start__E.1)
                  00004868    00000008     (.tramp.ti_sysbios_knl_Task_create.1)
                  00004870    00000008     (.tramp.ti_sysbios_knl_Clock_scheduleNextTick__E.1)
                  00004878    00000008     (.tramp.ti_sysbios_knl_Clock_walkQueueDynamic__E.1)
                  00004880    00000008     (.tramp.ti_sysbios_knl_Clock_TimerProxy_getCurrentTick__E.1)
                  00004888    00000008     (.tramp.ti_sysbios_knl_Semaphore_create.1)
                  00004890    00000008     (.tramp.ti_sysbios_knl_Clock_stop__E.1)
                  00004898    00000008     (.tramp.ti_sysbios_knl_Clock_start__E.1)
                  000048a0    00000008     (.tramp.ti_sysbios_knl_Clock_setTimeout__E.1)
                  000048a8    00000008     (.tramp.ti_sysbios_knl_Semaphore_pend__E.1)

.const     0    000048b0    000003cc     
                  000048b0    0000007a     console_tirtos.obj (.const:.string:helpPrompt)
                  0000492a    0000004c     drivers_cc26x0r2.aem3 : PowerCC26XX.oem3 (.const:resourceDB)
                  00004976    00000002     console_tirtos.obj (.const:.string:cleanDisplay)
                  00004978    00000048     release_pem3.oem3 (.const:.string)
                  000049c0    00000044     drivers_cc26x0r2.aem3 : UARTCC26XX.oem3 (.const:$O1$$)
                  00004a04    00000040                           : GPIOCC26XX.oem3 (.const:$O2$$)
                  00004a44    0000002c     CC2640R2_LAUNCHXL.obj (.const:BoardGpioInitTable)
                  00004a70    00000028     drivers_cc26x0r2.aem3 : UARTCC26XX.oem3 (.const:UARTCC26XX_fxnTable)
                  00004a98    00000028     CC2640R2_LAUNCHXL.obj (.const:uartCC26XXHWAttrs)
                  00004ac0    00000027     console_tirtos.obj (.const:.string:byeDisplay)
                  00004ae7    00000001     release_pem3.oem3 (.const:xdc_runtime_Text_charTab__A)
                  00004ae8    00000024     drivers_cc26x0r2.aem3 : UART.oem3 (.const:UART_defaultParams)
                  00004b0c    00000024     release_pem3.oem3 (.const:xdc_runtime_Startup_sfxnTab__A)
                  00004b30    00000018     console_tirtos.obj (.const:.string:consoleDisplay)
                  00004b48    00000018     drivers_cc26x0r2.aem3 : I2CCC26XX.oem3 (.const:I2CCC26XX_fxnTable)
                  00004b60    00000018     CC2640R2_LAUNCHXL.obj (.const:PowerCC26XX_config)
                  00004b78    00000018     CC2640R2_LAUNCHXL.obj (.const:i2cCC26xxHWAttrs)
                  00004b90    00000015     console_tirtos.obj (.const:.string:readErrDisplay)
                  00004ba5    00000003     console_tirtos.obj (.const:.string:userPrompt)
                  00004ba8    00000014     CC2640R2_LAUNCHXL_fxns.obj (.const:$P$T1$2)
                  00004bbc    00000014     CC2640R2_LAUNCHXL.obj (.const:GPIOCC26XX_config)
                  00004bd0    00000012     CC2640R2_LAUNCHXL.obj (.const)
                  00004be2    00000012     release_pem3.oem3 (.const:xdc_runtime_Startup_sfxnRts__A)
                  00004bf4    00000010     console_tirtos.obj (.const:.string:tempStartDisplay)
                  00004c04    00000010     drivers_cc26x0r2.aem3 : I2C.oem3 (.const:I2C_defaultParams)
                  00004c14    0000000c     CC2640R2_LAUNCHXL.obj (.const:I2C_config)
                  00004c20    0000000c     CC2640R2_LAUNCHXL.obj (.const:UART_config)
                  00004c2c    0000000c     release_pem3.oem3 (.const:xdc_runtime_Startup_firstFxns__A)
                  00004c38    00000008     CC2640R2_LAUNCHXL_fxns.obj (.const:$P$T0$1)
                  00004c40    00000008     CC2640R2_LAUNCHXL.obj (.const:PINCC26XX_hwAttrs)
                  00004c48    00000008     drivers_cc26x0r2.aem3 : I2CCC26XX.oem3 (.const:bitRate)
                  00004c50    00000008     release_pem3.oem3 (.const:ti_sysbios_knl_Idle_funcList__A)
                  00004c58    00000005     console_tirtos.obj (.const:.string:tempEndDisplay)
                  00004c5d    00000004     console_tirtos.obj (.const:.string:tempMidDisplay)
                  00004c61    00000003     --HOLE-- [fill = 0]
                  00004c64    00000004     release_pem3.oem3 (.const:ti_sysbios_family_arm_cc26xx_Timer_funcHookCH1__C)
                  00004c68    00000004     release_pem3.oem3 (.const:ti_sysbios_family_arm_cc26xx_Timer_funcHookCH2__C)
                  00004c6c    00000004     release_pem3.oem3 (.const:ti_sysbios_heaps_HeapMem_primaryHeapBaseAddr__C)
                  00004c70    00000004     release_pem3.oem3 (.const:ti_sysbios_heaps_HeapMem_primaryHeapEndAddr__C)
                  00004c74    00000004     release_pem3.oem3 (.const:ti_sysbios_knl_Clock_tickPeriod__C)
                  00004c78    00000004     release_pem3.oem3 (.const:ti_sysbios_knl_Task_Object__heap__C)

MODULE SUMMARY

       Module                            code    ro data   rw data
       ------                            ----    -------   -------
    ./
       CC2640R2_LAUNCHXL.obj             36      202       620    
       CC2640R2_LAUNCHXL_fxns.obj        280     28        0      
       main_tirtos.obj                   130     0         8      
       ccfg.obj                          0       88        0      
    +--+---------------------------------+-------+---------+---------+
       Total:                            446     318       628    
                                                                  
    ./tirtos/
       console_tirtos.obj                660     236       5      
       temperature_tirtos.obj            470     0         8      
    +--+---------------------------------+-------+---------+---------+
       Total:                            1130    236       13     
                                                                  
    /home/bjorn/ti/TIWS/tirtos_builds_CC2640R2_LAUNCHXL_release_ccs/Debug/configPkg/package/cfg/
       release_pem3.oem3                 404     1043      1780   
    +--+---------------------------------+-------+---------+---------+
       Total:                            404     1043      1780   
                                                                  
    /home/bjorn/ti/CCStudio/ccs/tools/compiler/ti-cgt-arm_18.12.2.LTS/lib/rtsv7M3_T_le_eabi.lib
       fs_add_t2.asm.obj                 250     0         0      
       memcpy_t2.asm.obj                 156     0         0      
       ull_div_t2.asm.obj                150     0         0      
       fs_div_t2.asm.obj                 146     0         0      
       fs_mul_t2.asm.obj                 122     0         0      
       memset_t2.asm.obj                 122     0         0      
       copy_decompress_lzss.c.obj        104     0         0      
       cpy_tbl.c.obj                     76      0         0      
       fs_toi_t2.asm.obj                 56      0         0      
       i_tofs_t2.asm.obj                 56      0         0      
       _lock.c.obj                       26      0         8      
       args_main.c.obj                   24      0         0      
       ll_mul_t2.asm.obj                 24      0         0      
       strlen.c.obj                      20      0         0      
       copy_decompress_none.c.obj        14      0         0      
       copy_zero_init.c.obj              12      0         0      
       stkdepth_vars.c.obj               0       0         4      
       div0.asm.obj                      2       0         0      
    +--+---------------------------------+-------+---------+---------+
       Total:                            1360    0         12     
                                                                  
    /home/bjorn/ti/TIWS/tirtos_builds_CC2640R2_LAUNCHXL_release_ccs/src/sysbios/rom_sysbios.aem3
       rom_sysbios.obj                   1060    0         136    
    +--+---------------------------------+-------+---------+---------+
       Total:                            1060    0         136    
                                                                  
    /home/bjorn/ti/simplelink_cc2640r2_sdk_4_30_00_08/kernel/tirtos/packages/ti/dpl/lib/dpl_cc26x0r2.aem3
       PowerCC26XX_tirtos.oem3           284     0         8      
       SemaphoreP_tirtos.oem3            126     0         0      
       ClockP_tirtos.oem3                110     0         4      
       SwiP_tirtos.oem3                  96      0         0      
       HwiP_tirtos.oem3                  94      0         0      
    +--+---------------------------------+-------+---------+---------+
       Total:                            710     0         12     
                                                                  
    /home/bjorn/ti/simplelink_cc2640r2_sdk_4_30_00_08/kernel/tirtos/packages/ti/targets/arm/rtsarm/lib/auto_init.aem3
       auto_init.oem3                    160     0         0      
    +--+---------------------------------+-------+---------+---------+
       Total:                            160     0         0      
                                                                  
    /home/bjorn/ti/simplelink_cc2640r2_sdk_4_30_00_08/kernel/tirtos/packages/ti/targets/arm/rtsarm/lib/boot.aem3
       boot.oem3                         68      0         0      
    +--+---------------------------------+-------+---------+---------+
       Total:                            68      0         0      
                                                                  
    /home/bjorn/ti/simplelink_cc2640r2_sdk_4_30_00_08/source/ti/devices/cc26x0r2/driverlib/bin/ccs/driverlib.lib
       sys_ctrl.obj                      760     0         8      
       setup.obj                         316     0         0      
       osc.obj                           284     0         20     
       chipinfo.obj                      122     0         0      
       uart.obj                          94      0         0      
       i2c.obj                           92      0         0      
       adi.obj                           40      0         0      
       cpu.obj                           30      0         0      
       driverlib_release.obj             0       0         1      
    +--+---------------------------------+-------+---------+---------+
       Total:                            1738    0         29     
                                                                  
    /home/bjorn/ti/simplelink_cc2640r2_sdk_4_30_00_08/source/ti/drivers/lib/drivers_cc26x0r2.aem3
       UARTCC26XX.oem3                   2574    108       0      
       PowerCC26XX.oem3                  2092    76        276    
       PINCC26XX.oem3                    1494    0         276    
       I2CCC26XX.oem3                    1410    32        0      
       PowerCC26XX_calibrateRCOSC.oem3   1388    0         0      
       GPIOCC26XX.oem3                   704     64        64     
       UART.oem3                         182     36        1      
       I2C.oem3                          154     16        1      
       RingBuf.oem3                      148     0         0      
       List.oem3                         70      0         0      
    +--+---------------------------------+-------+---------+---------+
       Total:                            10216   332       618    
                                                                  
       Stack:                            0       0         1024   
       Linker Generated:                 432     646       0      
    +--+---------------------------------+-------+---------+---------+
       Grand Total:                      17724   2575      4252   


LINKER GENERATED COPY TABLES

__TI_cinit_table @ 00004ea0 records: 13, size/record: 8, table size: 104
	.data: load addr=00004c80, load size=00000143 bytes, run addr=20001208, run size=0000059d bytes, compression=lzss
	.data:ti_sysbios_family_arm_m3_Hwi_Module__state__V: load addr=00004dc3, load size=00000028 bytes, run addr=20000144, run size=00000034 bytes, compression=lzss
	.data:ti_sysbios_knl_Task_Module__state__V: load addr=00004deb, load size=00000021 bytes, run addr=20000100, run size=00000044 bytes, compression=lzss
	.data:ti_sysbios_BIOS_Module__state__V: load addr=00004e0c, load size=0000001f bytes, run addr=200001a4, run size=00000024 bytes, compression=lzss
	.data:ti_sysbios_knl_Clock_Module__state__V: load addr=00004e2b, load size=0000001d bytes, run addr=20000178, run size=0000002c bytes, compression=lzss
	.data:ti_sysbios_knl_Swi_Module__state__V: load addr=00004e48, load size=00000010 bytes, run addr=200001c8, run size=0000001c bytes, compression=lzss
	.data:ti_sysbios_family_arm_cc26xx_Timer_Module__state__V: load addr=00004e64, load size=0000000b bytes, run addr=200001e4, run size=00000008 bytes, compression=lzss
	.data:xdc_runtime_System_Module__state__V: load addr=00004e6f, load size=0000000b bytes, run addr=200001f8, run size=00000008 bytes, compression=lzss
	.data:xdc_runtime_Error_Module__state__V: load addr=00004e7a, load size=00000006 bytes, run addr=20000204, run size=00000002 bytes, compression=lzss
	.bss: load addr=00004e80, load size=00000008 bytes, run addr=200017a8, run size=00000531 bytes, compression=zero_init
	.data:xdc_runtime_Memory_Module__state__V: load addr=00004e88, load size=00000008 bytes, run addr=20000200, run size=00000004 bytes, compression=lzss
	.data:ti_sysbios_family_arm_cc26xx_TimestampProvider_Module__state__V: load addr=00004e90, load size=00000007 bytes, run addr=200001ec, run size=00000004 bytes, compression=lzss
	.data:xdc_runtime_Startup_Module__state__V: load addr=00004e97, load size=00000007 bytes, run addr=200001f0, run size=00000008 bytes, compression=lzss


LINKER GENERATED HANDLER TABLE

__TI_handler_table @ 00004e58 records: 3, size/record: 4, table size: 12
	index: 0, handler: __TI_decompress_lzss
	index: 1, handler: __TI_decompress_none
	index: 2, handler: __TI_zero_init


FAR CALL TRAMPOLINES

callee name               trampoline name
   callee addr  tramp addr   call addr  call info
--------------  -----------  ---------  ----------------
ti_sysbios_knl_Swi_restore__E  $Tramp$TT$L$PI$$ti_sysbios_knl_Swi_restore__E
   1001b305     0000057c     00000516   drivers_cc26x0r2.aem3 : PowerCC26XX.oem3 (.text:Power_sleep)
                             00004372   dpl_cc26x0r2.aem3 : PowerCC26XX_tirtos.oem3 (.text:PowerCC26XX_schedulerRestore)
ti_sysbios_family_arm_m3_Hwi_restoreFxn__E  $Tramp$TT$L$PI$$ti_sysbios_family_arm_m3_Hwi_restoreFxn__E
   1001c061     00000c40     00000afa   drivers_cc26x0r2.aem3 : UARTCC26XX.oem3 (.text:UARTCC26XX_open)
                             00000b06                         : UARTCC26XX.oem3 (.text:UARTCC26XX_open)
                             00000b8a                         : UARTCC26XX.oem3 (.text:UARTCC26XX_open)
                             00000c64                         : I2CCC26XX.oem3 (.text:I2CCC26XX_open)
                             00000c74                         : I2CCC26XX.oem3 (.text:I2CCC26XX_open)
                             00000cd6                         : I2CCC26XX.oem3 (.text:I2CCC26XX_open)
                             00000f42   console_tirtos.obj (.text:simpleConsole)
                             00001420   temperature_tirtos.obj (.text:temperatureThread)
                             000014a8   drivers_cc26x0r2.aem3 : UARTCC26XX.oem3 (.text:UARTCC26XX_read)
                             00001500                         : UARTCC26XX.oem3 (.text:UARTCC26XX_read)
                             00001528                         : UARTCC26XX.oem3 (.text:UARTCC26XX_read)
                             0000153a                         : UARTCC26XX.oem3 (.text:UARTCC26XX_read)
                             00001584                         : UARTCC26XX.oem3 (.text:UARTCC26XX_read)
                             00001594                         : UARTCC26XX.oem3 (.text:UARTCC26XX_read)
                             0000185c                         : GPIOCC26XX.oem3 (.text:GPIO_setConfig)
                             00001890                         : GPIOCC26XX.oem3 (.text:GPIO_setConfig)
                             00001aa8                         : PINCC26XX.oem3 (.text:PINCC26XX_setIoCfg)
                             00001be8                         : UARTCC26XX.oem3 (.text:UARTCC26XX_write)
                             00001c0c                         : UARTCC26XX.oem3 (.text:UARTCC26XX_write)
                             00001c62                         : UARTCC26XX.oem3 (.text:UARTCC26XX_write)
                             00001cda                         : I2CCC26XX.oem3 (.text:I2CCC26XX_transfer)
                             00001cec                         : I2CCC26XX.oem3 (.text:I2CCC26XX_transfer)
                             00001e1e                         : PowerCC26XX.oem3 (.text:Power_releaseDependency)
                             00001ed4                         : PowerCC26XX.oem3 (.text:Power_setDependency)
                             00001fb0                         : GPIOCC26XX.oem3 (.text:GPIO_init)
                             00001fb6                         : GPIOCC26XX.oem3 (.text:GPIO_init)
                             000020c8                         : PowerCC26XX.oem3 (.text:switchXOSCHFclockFunc)
                             000026ca                         : I2CCC26XX.oem3 (.text:I2CCC26XX_cancel)
                             00002820                         : UARTCC26XX.oem3 (.text:UARTCC26XX_writeCancel)
                             00002836                         : UARTCC26XX.oem3 (.text:UARTCC26XX_writeCancel)
                             0000286a                         : UARTCC26XX.oem3 (.text:UARTCC26XX_writeCancel)
                             00002a34                         : UARTCC26XX.oem3 (.text:writeTxFifoFlush)
                             00002d06                         : PowerCC26XX_calibrateRCOSC.oem3 (.text:PowerCC26XX_initiateCalibration)
                             00003350                         : UARTCC26XX.oem3 (.text:UARTCC26XX_control)
                             00003406                         : GPIOCC26XX.oem3 (.text:GPIO_write)
                             00003572                         : UARTCC26XX.oem3 (.text:UARTCC26XX_readCancel)
                             00003586                         : UARTCC26XX.oem3 (.text:UARTCC26XX_readCancel)
                             000035ce                         : GPIOCC26XX.oem3 (.text:GPIO_enableInt)
                             00003616                         : PINCC26XX.oem3 (.text:PIN_setOutputEnable)
                             00003752                         : RingBuf.oem3 (.text:RingBuf_put)
                             0000377c                         : RingBuf.oem3 (.text:RingBuf_put)
                             00003836                         : I2C.oem3 (.text:I2C_init)
                             000038f6                         : UART.oem3 (.text:UART_init)
                             000039b2                         : RingBuf.oem3 (.text:RingBuf_get)
                             000039ba                         : RingBuf.oem3 (.text:RingBuf_get)
                             00003cde                         : PowerCC26XX.oem3 (.text:Power_releaseConstraint)
                             00003dd8                         : PowerCC26XX.oem3 (.text:Power_setConstraint)
                             0000406a                         : List.oem3 (.text:List_remove)
                             00004164                         : List.oem3 (.text:List_put)
                             00004200                         : PowerCC26XX.oem3 (.text:Power_unregisterNotify)
                             00004226                         : UARTCC26XX.oem3 (.text:threadSafeStdbyDisRelease)
                             00004246                         : UARTCC26XX.oem3 (.text:threadSafeStdbyDisSet)
ti_sysbios_family_arm_m3_Hwi_disableFxn__E  $Tramp$TT$L$PI$$ti_sysbios_family_arm_m3_Hwi_disableFxn__E
   1001bf85     00000ff8     00000f26   console_tirtos.obj (.text:simpleConsole)
                             000013dc   temperature_tirtos.obj (.text:temperatureThread)
                             000046e8   dpl_cc26x0r2.aem3 : HwiP_tirtos.oem3 (.text:HwiP_disable)
ti_sysbios_knl_Swi_destruct  $Tramp$TT$L$PI$$ti_sysbios_knl_Swi_destruct
   1001c115     00004718     000046fc   dpl_cc26x0r2.aem3 : SwiP_tirtos.oem3 (.text:SwiP_destruct)
ti_sysbios_family_arm_m3_Hwi_enableInterrupt__E  $Tramp$TT$L$PI$$ti_sysbios_family_arm_m3_Hwi_enableInterrupt__E
   1001af89     00004720     000046f0   dpl_cc26x0r2.aem3 : HwiP_tirtos.oem3 (.text:HwiP_enableInterrupt)
ti_sysbios_family_arm_m3_Hwi_disableInterrupt__E  $Tramp$TT$L$PI$$ti_sysbios_family_arm_m3_Hwi_disableInterrupt__E
   1001af45     00004728     000046ec   dpl_cc26x0r2.aem3 : HwiP_tirtos.oem3 (.text:HwiP_disableInterrupt)
ti_sysbios_family_arm_m3_Hwi_destruct  $Tramp$TT$L$PI$$ti_sysbios_family_arm_m3_Hwi_destruct
   1001c0a9     00004730     000046e4   dpl_cc26x0r2.aem3 : HwiP_tirtos.oem3 (.text:HwiP_destruct)
ti_sysbios_BIOS_getCpuFreq__E  $Tramp$TT$L$PI$$ti_sysbios_BIOS_getCpuFreq__E
   1001be91     00004738     000046d4   dpl_cc26x0r2.aem3 : ClockP_tirtos.oem3 (.text:ClockP_getCpuFreq)
ti_sysbios_knl_Clock_destruct  $Tramp$TT$L$PI$$ti_sysbios_knl_Clock_destruct
   1001c0dd     00004740     000046d0   dpl_cc26x0r2.aem3 : ClockP_tirtos.oem3 (.text:ClockP_destruct)
xdc_runtime_Startup_startMods__I  $Tramp$TT$L$PI$$xdc_runtime_Startup_startMods__I
   1001c129     00004748     000044ea   release_pem3.oem3 (.text:xdc_runtime_Startup_exec__I)
ti_sysbios_knl_Clock_logTick__E  $Tramp$TT$L$PI$$ti_sysbios_knl_Clock_logTick__E
   1001b843     00004750     000044aa   release_pem3.oem3 (.text:ti_sysbios_knl_Clock_doTick__I)
ti_sysbios_knl_Task_Params__init__S  $Tramp$TT$L$PI$$ti_sysbios_knl_Task_Params__init__S
   1001c021     00004758     00004466   main_tirtos.obj (.text:ti_sysbios_knl_Task_Params_init)
ti_sysbios_knl_Swi_post__E  $Tramp$TT$L$PI$$ti_sysbios_knl_Swi_post__E
   1001b011     00004760     00004410   rom_sysbios.aem3 : rom_sysbios.obj (.text:ti_sysbios_knl_Swi_or__E)
                             000044b2   release_pem3.oem3 (.text:ti_sysbios_knl_Clock_doTick__I)
                             0000470c   dpl_cc26x0r2.aem3 : SwiP_tirtos.oem3 (.text:SwiP_post)
ti_sysbios_BIOS_RtsGateProxy_leave__E  $Tramp$TT$L$PI$$ti_sysbios_BIOS_RtsGateProxy_leave__E
   1001c095     00004768     000043f2   release_pem3.oem3 (.text:ti_sysbios_BIOS_rtsUnlock__I)
ti_sysbios_knl_Swi_construct  $Tramp$TT$L$PI$$ti_sysbios_knl_Swi_construct
   1001ad79     00004770     00004326   rom_sysbios.aem3 : rom_sysbios.obj (.text:ti_sysbios_knl_Swi_construct2__E)
ti_sysbios_BIOS_RtsGateProxy_enter__E  $Tramp$TT$L$PI$$ti_sysbios_BIOS_RtsGateProxy_enter__E
   1001c091     00004778     00004252   release_pem3.oem3 (.text:ti_sysbios_BIOS_rtsLock__I)
ti_sysbios_knl_Semaphore_post__E  $Tramp$TT$L$PI$$ti_sysbios_knl_Semaphore_post__E
   1001a3e1     00004780     000040ce   console_tirtos.obj (.text:gpioButtonFxn)
                             00004636   temperature_tirtos.obj (.text:postSem)
                             000046f8   dpl_cc26x0r2.aem3 : SemaphoreP_tirtos.oem3 (.text:SemaphoreP_post)
ti_sysbios_knl_Task_restore__E  $Tramp$TT$L$PI$$ti_sysbios_knl_Task_restore__E
   1001b7f5     00004788     000040a4   rom_sysbios.aem3 : rom_sysbios.obj (.text:_pthread_cleanupFxn)
                             00004378   dpl_cc26x0r2.aem3 : PowerCC26XX_tirtos.oem3 (.text:PowerCC26XX_schedulerRestore)
xdc_runtime_Memory_free__E  $Tramp$TT$L$PI$$xdc_runtime_Memory_free__E
   1001c705     00004790     00003f74   rom_sysbios.aem3 : rom_sysbios.obj (.text:_pthread_delete$44)
ti_sysbios_knl_Task_delete  $Tramp$TT$L$PI$$ti_sysbios_knl_Task_delete
   1001c11d     00004798     00003f68   rom_sysbios.aem3 : rom_sysbios.obj (.text:_pthread_delete$44)
ti_sysbios_knl_Semaphore_destruct  $Tramp$TT$L$PI$$ti_sysbios_knl_Semaphore_destruct
   1001c10d     000047a0     00003f5c   rom_sysbios.aem3 : rom_sysbios.obj (.text:_pthread_delete$44)
                             000046f4   dpl_cc26x0r2.aem3 : SemaphoreP_tirtos.oem3 (.text:SemaphoreP_destruct)
ti_sysbios_knl_Semaphore_construct  $Tramp$TT$L$PI$$ti_sysbios_knl_Semaphore_construct
   1001b45d     000047a8     00003f1e   dpl_cc26x0r2.aem3 : SemaphoreP_tirtos.oem3 (.text:SemaphoreP_constructBinary)
ti_sysbios_knl_Semaphore_Params__init__S  $Tramp$TT$L$PI$$ti_sysbios_knl_Semaphore_Params__init__S
   1001c009     000047b0     00003f0e   dpl_cc26x0r2.aem3 : SemaphoreP_tirtos.oem3 (.text:SemaphoreP_constructBinary)
                             00003f38                     : SemaphoreP_tirtos.oem3 (.text:SemaphoreP_createBinary)
ti_sysbios_knl_Task_startup__E  $Tramp$TT$L$PI$$ti_sysbios_knl_Task_startup__E
   1001c125     000047b8     00003e38   release_pem3.oem3 (.text:ti_sysbios_BIOS_startFunc__I)
ti_sysbios_knl_Swi_startup__E  $Tramp$TT$L$PI$$ti_sysbios_knl_Swi_startup__E
   1001c085     000047c0     00003e34   release_pem3.oem3 (.text:ti_sysbios_BIOS_startFunc__I)
ti_sysbios_hal_Hwi_startup__E  $Tramp$TT$L$PI$$ti_sysbios_hal_Hwi_startup__E
   1001c04b     000047c8     00003e30   release_pem3.oem3 (.text:ti_sysbios_BIOS_startFunc__I)
ti_sysbios_family_arm_cc26xx_Timer_startup__E  $Tramp$TT$L$PI$$ti_sysbios_family_arm_cc26xx_Timer_startup__E
   1001b4e9     000047d0     00003e2c   release_pem3.oem3 (.text:ti_sysbios_BIOS_startFunc__I)
xdc_runtime_System_atexit__E  $Tramp$TT$L$PI$$xdc_runtime_System_atexit__E
   1001c581     000047d8     00003e24   release_pem3.oem3 (.text:ti_sysbios_BIOS_startFunc__I)
ti_sysbios_BIOS_linkedWithIncorrectBootLibrary__E  $Tramp$TT$L$PI$$ti_sysbios_BIOS_linkedWithIncorrectBootLibrary__E
   1001a683     000047e0     00003e1e   release_pem3.oem3 (.text:ti_sysbios_BIOS_startFunc__I)
xdc_runtime_Startup_rtsDone__E  $Tramp$TT$L$PI$$xdc_runtime_Startup_rtsDone__E
   1001c769     000047e8     00003e16   release_pem3.oem3 (.text:ti_sysbios_BIOS_startFunc__I)
ti_sysbios_BIOS_setThreadType__E  $Tramp$TT$L$PI$$ti_sysbios_BIOS_setThreadType__E
   1001bea1     000047f0     00003df0   release_pem3.oem3 (.text:ti_sysbios_BIOS_atExitFunc__I)
                             00004424   release_pem3.oem3 (.text:ti_sysbios_BIOS_errorRaiseHook__I)
                             00004434   release_pem3.oem3 (.text:ti_sysbios_BIOS_exitFunc__I)
ti_sysbios_knl_Task_disable__E  $Tramp$TT$L$PI$$ti_sysbios_knl_Task_disable__E
   1001bf31     000047f8     00003dea   release_pem3.oem3 (.text:ti_sysbios_BIOS_atExitFunc__I)
                             00004096   rom_sysbios.aem3 : rom_sysbios.obj (.text:_pthread_cleanupFxn)
                             00004356   dpl_cc26x0r2.aem3 : PowerCC26XX_tirtos.oem3 (.text:PowerCC26XX_schedulerDisable)
ti_sysbios_knl_Swi_disable__E  $Tramp$TT$L$PI$$ti_sysbios_knl_Swi_disable__E
   1001bf11     00004800     00003de6   release_pem3.oem3 (.text:ti_sysbios_BIOS_atExitFunc__I)
                             0000435e   dpl_cc26x0r2.aem3 : PowerCC26XX_tirtos.oem3 (.text:PowerCC26XX_schedulerDisable)
                             00004700                     : SwiP_tirtos.oem3 (.text:SwiP_disable)
ti_sysbios_family_arm_m3_Hwi_construct  $Tramp$TT$L$PI$$ti_sysbios_family_arm_m3_Hwi_construct
   1001aabd     00004808     00003b46   rom_sysbios.aem3 : rom_sysbios.obj (.text:ti_sysbios_family_arm_m3_Hwi_construct2__E)
ti_sysbios_knl_Task_sleep__E  $Tramp$TT$L$PI$$ti_sysbios_knl_Task_sleep__E
   1001a5a5     00004810     00003b1a   rom_sysbios.aem3 : rom_sysbios.obj (.text:sleep)
ti_sysbios_knl_Swi_Params__init__S  $Tramp$TT$L$PI$$ti_sysbios_knl_Swi_Params__init__S
   1001c015     00004818     00003a92   dpl_cc26x0r2.aem3 : SwiP_tirtos.oem3 (.text:SwiP_construct)
ti_sysbios_family_arm_m3_Hwi_Params__init__S  $Tramp$TT$L$PI$$ti_sysbios_family_arm_m3_Hwi_Params__init__S
   1001bf79     00004820     00003964   dpl_cc26x0r2.aem3 : HwiP_tirtos.oem3 (.text:HwiP_construct)
xdc_runtime_System_exit__E  $Tramp$TT$L$PI$$xdc_runtime_System_exit__E
   1001c6d5     00004828     000037b0   boot.aem3 : boot.oem3 (.text)
                             0000443a   release_pem3.oem3 (.text:ti_sysbios_BIOS_exitFunc__I)
ti_sysbios_knl_Clock_construct  $Tramp$TT$L$PI$$ti_sysbios_knl_Clock_construct
   1001b269     00004830     0000344a   dpl_cc26x0r2.aem3 : ClockP_tirtos.oem3 (.text:ClockP_construct)
ti_sysbios_knl_Clock_Params__init__S  $Tramp$TT$L$PI$$ti_sysbios_knl_Clock_Params__init__S
   1001bfc1     00004838     00003430   dpl_cc26x0r2.aem3 : ClockP_tirtos.oem3 (.text:ClockP_construct)
                             00004450   temperature_tirtos.obj (.text:ti_sysbios_knl_Clock_Params_init)
ti_sysbios_heaps_HeapMem_restore__E  $Tramp$TT$L$PI$$ti_sysbios_heaps_HeapMem_restore__E
   1001bf41     00004840     00003244   rom_sysbios.aem3 : rom_sysbios.obj (.text:ti_sysbios_heaps_HeapMem_initPrimary__I)
ti_sysbios_heaps_HeapMem_Object__get__S  $Tramp$TT$L$PI$$ti_sysbios_heaps_HeapMem_Object__get__S
   1001b5c5     00004848     00003214   rom_sysbios.aem3 : rom_sysbios.obj (.text:ti_sysbios_heaps_HeapMem_initPrimary__I)
ti_sysbios_knl_Semaphore_delete  $Tramp$TT$L$PI$$ti_sysbios_knl_Semaphore_delete
   1001c109     00004850     000030d2   temperature_tirtos.obj (.text:setupTimer)
                             00004606   dpl_cc26x0r2.aem3 : SemaphoreP_tirtos.oem3 (.text:SemaphoreP_delete)
ti_sysbios_knl_Clock_create  $Tramp$TT$L$PI$$ti_sysbios_knl_Clock_create
   1001b1fd     00004858     000030c2   temperature_tirtos.obj (.text:setupTimer)
ti_sysbios_BIOS_start__E  $Tramp$TT$L$PI$$ti_sysbios_BIOS_start__E
   1001beb1     00004860     00002e06   main_tirtos.obj (.text:main)
ti_sysbios_knl_Task_create  $Tramp$TT$L$PI$$ti_sysbios_knl_Task_create
   1001accd     00004868     00002dd8   main_tirtos.obj (.text:main)
                             00002df2   main_tirtos.obj (.text:main)
ti_sysbios_knl_Clock_scheduleNextTick__E  $Tramp$TT$L$PI$$ti_sysbios_knl_Clock_scheduleNextTick__E
   1001bca9     00004870     00002508   rom_sysbios.aem3 : rom_sysbios.obj (.text:ti_sysbios_knl_Clock_workFuncDynamic__E)
ti_sysbios_knl_Clock_walkQueueDynamic__E  $Tramp$TT$L$PI$$ti_sysbios_knl_Clock_walkQueueDynamic__E
   1001a2f1     00004878     000024d2   rom_sysbios.aem3 : rom_sysbios.obj (.text:ti_sysbios_knl_Clock_workFuncDynamic__E)
                             000024ec                    : rom_sysbios.obj (.text:ti_sysbios_knl_Clock_workFuncDynamic__E)
ti_sysbios_knl_Clock_TimerProxy_getCurrentTick__E  $Tramp$TT$L$PI$$ti_sysbios_knl_Clock_TimerProxy_getCurrentTick__E
   1001bee1     00004880     000024a2   rom_sysbios.aem3 : rom_sysbios.obj (.text:ti_sysbios_knl_Clock_workFuncDynamic__E)
                             00003f92                    : rom_sysbios.obj (.text:ti_sysbios_knl_Clock_getTicksUntilInterrupt__E)
ti_sysbios_knl_Semaphore_create  $Tramp$TT$L$PI$$ti_sysbios_knl_Semaphore_create
   1001b2d1     00004888     00002248   console_tirtos.obj (.text:consoleThread)
                             00003098   temperature_tirtos.obj (.text:setupTimer)
                             00003f48   dpl_cc26x0r2.aem3 : SemaphoreP_tirtos.oem3 (.text:SemaphoreP_createBinary)
ti_sysbios_knl_Clock_stop__E  $Tramp$TT$L$PI$$ti_sysbios_knl_Clock_stop__E
   1001bab9     00004890     00001b40   dpl_cc26x0r2.aem3 : PowerCC26XX_tirtos.oem3 (.text:PowerCC26XX_standbyPolicy)
                             000046e0                     : ClockP_tirtos.oem3 (.text:ClockP_stop)
ti_sysbios_knl_Clock_start__E  $Tramp$TT$L$PI$$ti_sysbios_knl_Clock_start__E
   1001be1f     00004898     00001b34   dpl_cc26x0r2.aem3 : PowerCC26XX_tirtos.oem3 (.text:PowerCC26XX_standbyPolicy)
                             000046dc                     : ClockP_tirtos.oem3 (.text:ClockP_start)
ti_sysbios_knl_Clock_setTimeout__E  $Tramp$TT$L$PI$$ti_sysbios_knl_Clock_setTimeout__E
   1001c0e5     000048a0     00001b2e   dpl_cc26x0r2.aem3 : PowerCC26XX_tirtos.oem3 (.text:PowerCC26XX_standbyPolicy)
                             000046d8                     : ClockP_tirtos.oem3 (.text:ClockP_setTimeout)
ti_sysbios_knl_Semaphore_pend__E  $Tramp$TT$L$PI$$ti_sysbios_knl_Semaphore_pend__E
   10019b05     000048a8     00001448   temperature_tirtos.obj (.text:temperatureThread)
                             00002282   console_tirtos.obj (.text:consoleThread)
                             000044d0   dpl_cc26x0r2.aem3 : SemaphoreP_tirtos.oem3 (.text:SemaphoreP_pend)

[54 trampolines]
[134 trampoline calls]


GLOBAL SYMBOLS: SORTED ALPHABETICALLY BY Name 

address   name                                                                      
-------   ----                                                                      
00004bd0  ADCBuf_count                                                              
00004bd1  ADC_count                                                                 
00004bd4  AESCBC_count                                                              
00004bd2  AESCCM_count                                                              
00004bd7  AESCTRDRBG_count                                                          
00004bd5  AESCTR_count                                                              
00004bd6  AESECB_count                                                              
00004bd3  AESGCM_count                                                              
00004a44  BoardGpioInitTable                                                        
00004685  Board_init                                                                
0000468d  Board_initHook                                                            
000042e9  CC2640R2_LAUNCHXL_initGeneral                                             
00002919  CC2640R2_LAUNCHXL_sendExtFlashByte                                        
000037c9  CC2640R2_LAUNCHXL_shutDownExtFlash                                        
000034b5  CC2640R2_LAUNCHXL_wakeUpExtFlash                                          
00004649  ClockP_Params_init                                                        
00003415  ClockP_construct                                                          
000046d1  ClockP_destruct                                                           
000046d5  ClockP_getCpuFreq                                                         
1001b29d  ClockP_getSystemTicks                                                     
000046d9  ClockP_setTimeout                                                         
000046dd  ClockP_start                                                              
000046e1  ClockP_stop                                                               
20001cc0  ClockP_tickPeriod                                                         
00004bd9  Display_count                                                             
00004bbc  GPIOCC26XX_config                                                         
00003599  GPIO_enableInt                                                            
00003d55  GPIO_hwiIntFxn                                                            
00001f99  GPIO_init                                                                 
000039c5  GPIO_setCallback                                                          
000017e1  GPIO_setConfig                                                            
000033c1  GPIO_write                                                                
00001000  HEAPSIZE                                                                  
000044f3  HwiP_Params_init                                                          
00003949  HwiP_construct                                                            
000046e5  HwiP_destruct                                                             
000046e9  HwiP_disable                                                              
000046ed  HwiP_disableInterrupt                                                     
000046f1  HwiP_enableInterrupt                                                      
1001c061  HwiP_restore                                                              
0000264d  I2CCC26XX_cancel                                                          
00003149  I2CCC26XX_close                                                           
000046b5  I2CCC26XX_control                                                         
00004b48  I2CCC26XX_fxnTable                                                        
00004653  I2CCC26XX_init                                                            
00000c49  I2CCC26XX_open                                                            
00001ca7  I2CCC26XX_transfer                                                        
00004505  I2C_Params_init                                                           
00004c14  I2C_config                                                                
00004bda  I2C_count                                                                 
00004c04  I2C_defaultParams                                                         
00003809  I2C_init                                                                  
00003849  I2C_open                                                                  
0000465d  I2C_transfer                                                              
00004bdb  I2S_count                                                                 
00004149  List_put                                                                  
0000404d  List_remove                                                               
000045b7  NOROM_CPUcpsid                                                            
000045c3  NOROM_CPUcpsie                                                            
000046bb  NOROM_CPUdelay                                                            
00003ed1  NOROM_ChipInfo_GetChipFamily                                              
00003fad  NOROM_ChipInfo_GetChipType                                                
0000433d  NOROM_ChipInfo_GetPackageType                                             
0000418d  NOROM_I2CMasterErr                                                        
00003a01  NOROM_I2CMasterInitExpClk                                                 
00002c75  NOROM_OSCHF_AttemptToSwitchToXosc                                         
000036fd  NOROM_OSCHF_SwitchToRcOscTurnOffXosc                                      
00004071  NOROM_OSCHF_TurnOnXosc                                                    
00003a3d  NOROM_OSC_HPOSCRelativeFrequencyOffsetGet                                 
000045cf  NOROM_OSC_HPOSCRelativeFrequencyOffsetToRFCoreFormatConvert               
00001eed  NOROM_SetupTrimDevice                                                     
00002b95  NOROM_SysCtrlAdjustRechargeAfterPowerDown                                 
00000585  NOROM_SysCtrlSetRechargeBeforePowerDown                                   
00002e8d  NOROM_SysCtrl_DCDC_VoltageConditionalControl                              
00004555  NOROM_ThisLibraryIsFor_CC26x0R2_HaltIfViolated                            
00004563  NOROM_UARTCharGetNonBlocking                                              
00004571  NOROM_UARTCharPutNonBlocking                                              
0000416b  NOROM_UARTConfigSetExpClk                                                 
000041ad  NOROM_UARTDisable                                                         
00004bdc  NVS_count                                                                 
00004515  PINCC26XX_getPinCount                                                     
00004c40  PINCC26XX_hwAttrs                                                         
00003d85  PINCC26XX_setMux                                                          
00002ef5  PIN_add                                                                   
000042ad  PIN_close                                                                 
000007a5  PIN_init                                                                  
000020e5  PIN_open                                                                  
000045db  PIN_registerIntCb                                                         
000032b9  PIN_remove                                                                
00003b69  PIN_setConfig                                                             
00003ba1  PIN_setInterrupt                                                          
000035e1  PIN_setOutputEnable                                                       
00003bd9  PIN_setOutputValue                                                        
00004bdd  PWM_count                                                                 
000031a5  PowerCC26XX_RCOSC_clockFunc                                               
0000003d  PowerCC26XX_auxISR                                                        
00003029  PowerCC26XX_calibrate                                                     
00004b60  PowerCC26XX_config                                                        
00000955  PowerCC26XX_doCalibrate                                                   
00002ce1  PowerCC26XX_initiateCalibration                                           
2000131c  PowerCC26XX_module                                                        
00004355  PowerCC26XX_schedulerDisable                                              
0000436d  PowerCC26XX_schedulerRestore                                              
00001add  PowerCC26XX_standbyPolicy                                                 
20001cb4  PowerCC26XX_swiKey                                                        
20001cb0  PowerCC26XX_taskKey                                                       
000045e9  Power_getConstraintMask                                                   
000045f5  Power_getDependencyCount                                                  
000042cb  Power_getTransitionLatency                                                
00004385  Power_idleFunc                                                            
000015a1  Power_init                                                                
00003fd5  Power_registerNotify                                                      
00003cb9  Power_releaseConstraint                                                   
00001d7d  Power_releaseDependency                                                   
00003db5  Power_setConstraint                                                       
00001e39  Power_setDependency                                                       
00000351  Power_sleep                                                               
000041ed  Power_unregisterNotify                                                    
00003785  ResetISR                                                                  
000044bd  RingBuf_construct                                                         
00003987  RingBuf_get                                                               
00003741  RingBuf_put                                                               
00004bde  SD_count                                                                  
UNDEFED   SHT$$INIT_ARRAY$$Base                                                     
UNDEFED   SHT$$INIT_ARRAY$$Limit                                                    
00004bdf  SPI_count                                                                 
00003ffd  SafeHapiVoid                                                              
00003efd  SemaphoreP_constructBinary                                                
00003f29  SemaphoreP_createBinary                                                   
00004601  SemaphoreP_delete                                                         
000046f5  SemaphoreP_destruct                                                       
000044cf  SemaphoreP_pend                                                           
000046f9  SemaphoreP_post                                                           
00004525  SwiP_Params_init                                                          
00003a79  SwiP_construct                                                            
000046fd  SwiP_destruct                                                             
00004701  SwiP_disable                                                              
00004705  SwiP_getTrigger                                                           
00004709  SwiP_or                                                                   
0000470d  SwiP_post                                                                 
1001b305  SwiP_restore                                                              
00004bd8  TRNG_count                                                                
0000299d  UARTCC26XX_close                                                          
00003311  UARTCC26XX_control                                                        
00004a70  UARTCC26XX_fxnTable                                                       
00000d95  UARTCC26XX_hwiIntFxn                                                      
0000469d  UARTCC26XX_init                                                           
00000ae5  UARTCC26XX_open                                                           
00001469  UARTCC26XX_read                                                           
0000354d  UARTCC26XX_readCancel                                                     
000046c1  UARTCC26XX_readPolling                                                    
000030e9  UARTCC26XX_swiIntFxn                                                      
00001bc5  UARTCC26XX_write                                                          
000027fd  UARTCC26XX_writeCancel                                                    
000046c7  UARTCC26XX_writePolling                                                   
0000439d  UART_Params_init                                                          
00004667  UART_close                                                                
00004c20  UART_config                                                               
00004be0  UART_count                                                                
00004ae8  UART_defaultParams                                                        
000038c9  UART_init                                                                 
00003909  UART_open                                                                 
00004671  UART_read                                                                 
0000467b  UART_write                                                                
00004be1  Watchdog_count                                                            
00000000  __ASM__                                                                   
00000077  __ISA__                                                                   
00000089  __PLAT__                                                                  
20005000  __STACK_END                                                               
00000400  __STACK_SIZE                                                              
000000b0  __TARG__                                                                  
00004ea0  __TI_CINIT_Base                                                           
00004f08  __TI_CINIT_Limit                                                          
00004e58  __TI_Handler_Table_Base                                                   
00004e64  __TI_Handler_Table_Limit                                                  
00002185  __TI_auto_init                                                            
00002f5d  __TI_decompress_lzss                                                      
0000458d  __TI_decompress_none                                                      
ffffffff  __TI_pprof_out_hndl                                                       
ffffffff  __TI_prof_data_size                                                       
ffffffff  __TI_prof_data_start                                                      
00004c80  __TI_static_base__                                                        
00004625  __TI_zero_init                                                            
000000d5  __TRDR__                                                                  
00003c11  __aeabi_f2iz                                                              
000018f5  __aeabi_fadd                                                              
000025bb  __aeabi_fdiv                                                              
00002aa1  __aeabi_fmul                                                              
000018f1  __aeabi_fsub                                                              
00003c49  __aeabi_i2f                                                               
0000288b  __aeabi_idiv0                                                             
0000288b  __aeabi_ldiv0                                                             
000043cd  __aeabi_lmul                                                              
00002b1b  __aeabi_memclr                                                            
00002b1b  __aeabi_memclr4                                                           
00002b1b  __aeabi_memclr8                                                           
000022c1  __aeabi_memcpy                                                            
000022c1  __aeabi_memcpy4                                                           
000022c1  __aeabi_memcpy8                                                           
00002b1d  __aeabi_memset                                                            
00002b1d  __aeabi_memset4                                                           
00002b1d  __aeabi_memset8                                                           
00002525  __aeabi_uldivmod                                                          
ffffffff  __binit__                                                                 
ffffffff  __c_args__                                                                
0001ffa8  __ccfg                                                                    
20001208  __primary_heap_end__                                                      
20000208  __primary_heap_start__                                                    
20004c00  __stack                                                                   
000043b5  _args_main                                                                
00003785  _c_int00                                                                  
20001720  _lock                                                                     
0000159f  _nop                                                                      
00004095  _pthread_cleanupFxn                                                       
0000460d  _register_lock                                                            
00004619  _register_unlock                                                          
20001724  _unlock                                                                   
ffffffff  binit                                                                     
00004ac0  byeDisplay                                                                
00004976  cleanDisplay                                                              
00004b30  consoleDisplay                                                            
20001cc4  consoleHandle                                                             
20001cc8  consoleSem                                                                
00002225  consoleThread                                                             
00003501  copy_in                                                                   
20001cd8  driverlib_release_0_56883                                                 
000040b9  gpioButtonFxn                                                             
20001710  gpioCallbackFunctions                                                     
200015e0  gpioPinConfigs                                                            
000048b0  helpPrompt                                                                
00004b78  i2cCC26xxHWAttrs                                                          
20001ad4  i2cCC26xxObjects                                                          
00004a04  inPinTypes                                                                
00002db9  main                                                                      
20001790  main_func_sp                                                              
000022c1  memcpy                                                                    
00002b23  memset                                                                    
00004a10  outPinStrengths                                                           
00004a1c  outPinTypes                                                               
200012a0  pinHandleTable                                                            
2000120c  pinLowerBound                                                             
20001208  pinUpperBound                                                             
00004b90  readErrDisplay                                                            
0000492a  resourceDB                                                                
00003089  setupTimer                                                                
00000edd  simpleConsole                                                             
00003af1  sleep                                                                     
00004481  strlen                                                                    
00004c58  tempEndDisplay                                                            
00004c5d  tempMidDisplay                                                            
00004bf4  tempStartDisplay                                                          
20001ccc  temperatureC                                                              
20001cd0  temperatureF                                                              
20001cd4  temperatureHandle                                                         
00001331  temperatureThread                                                         
200001a4  ti_sysbios_BIOS_Module__state__V                                          
1001b9d9  ti_sysbios_BIOS_RtsGateProxy_Handle__label__S                             
1001b9d9  ti_sysbios_BIOS_RtsGateProxy_Handle__label__S__mangled__                  
1001b88d  ti_sysbios_BIOS_RtsGateProxy_Object__delete__S                            
1001bfb5  ti_sysbios_BIOS_RtsGateProxy_Params__init__S                              
1001bfb5  ti_sysbios_BIOS_RtsGateProxy_Params__init__S__mangled__                   
1001c091  ti_sysbios_BIOS_RtsGateProxy_enter__E                                     
1001c095  ti_sysbios_BIOS_RtsGateProxy_leave__E                                     
1001c0bd  ti_sysbios_BIOS_RtsGateProxy_query__E                                     
1001c0bd  ti_sysbios_BIOS_RtsGateProxy_query__E__mangled__                          
00003de5  ti_sysbios_BIOS_atExitFunc__I                                             
00004415  ti_sysbios_BIOS_errorRaiseHook__I                                         
0000442b  ti_sysbios_BIOS_exitFunc__I                                               
1001be81  ti_sysbios_BIOS_exit__E                                                   
1001be91  ti_sysbios_BIOS_getCpuFreq__E                                             
1001a683  ti_sysbios_BIOS_linkedWithIncorrectBootLibrary__E                         
00003027  ti_sysbios_BIOS_nullFunc__I                                               
000040dd  ti_sysbios_BIOS_registerRTSLock__I                                        
00004101  ti_sysbios_BIOS_removeRTSLock__I                                          
0000424d  ti_sysbios_BIOS_rtsLock__I                                                
000043e5  ti_sysbios_BIOS_rtsUnlock__I                                              
1001bea1  ti_sysbios_BIOS_setThreadType__E                                          
00003e15  ti_sysbios_BIOS_startFunc__I                                              
1001beb1  ti_sysbios_BIOS_start__E                                                  
00001eed  ti_sysbios_family_arm_cc26xx_Boot_trimDevice                              
00001280  ti_sysbios_family_arm_cc26xx_Timer_Module__id__C                          
1001b8f9  ti_sysbios_family_arm_cc26xx_Timer_Module__startupDone__S                 
200001e4  ti_sysbios_family_arm_cc26xx_Timer_Module__state__V                       
1001b845  ti_sysbios_family_arm_cc26xx_Timer_Module_startup__E                      
20001558  ti_sysbios_family_arm_cc26xx_Timer_Object__table__V                       
0000426d  ti_sysbios_family_arm_cc26xx_Timer_dynamicStub__E                         
00004c64  ti_sysbios_family_arm_cc26xx_Timer_funcHookCH1__C                         
00004c68  ti_sysbios_family_arm_cc26xx_Timer_funcHookCH2__C                         
00004495  ti_sysbios_family_arm_cc26xx_Timer_getCount64__E                          
00003e45  ti_sysbios_family_arm_cc26xx_Timer_getCurrentTick__E                      
1001c099  ti_sysbios_family_arm_cc26xx_Timer_getExpiredTicks__E                     
00004125  ti_sysbios_family_arm_cc26xx_Timer_getMaxTicks__E                         
1001c09d  ti_sysbios_family_arm_cc26xx_Timer_getPeriod__E                           
00003d21  ti_sysbios_family_arm_cc26xx_Timer_initDevice__I                          
10019f25  ti_sysbios_family_arm_cc26xx_Timer_periodicStub__E                        
1001b4bd  ti_sysbios_family_arm_cc26xx_Timer_postInit__I                            
00003c81  ti_sysbios_family_arm_cc26xx_Timer_setNextTick__E                         
1001c0a1  ti_sysbios_family_arm_cc26xx_Timer_setPeriod__E                           
00003629  ti_sysbios_family_arm_cc26xx_Timer_setThreshold__I                        
0000276d  ti_sysbios_family_arm_cc26xx_Timer_start__E                               
000011f8  ti_sysbios_family_arm_cc26xx_Timer_startupNeeded__C                       
1001b4e9  ti_sysbios_family_arm_cc26xx_Timer_startup__E                             
200001ec  ti_sysbios_family_arm_cc26xx_TimestampProvider_Module__state__V           
1001b919  ti_sysbios_family_arm_cc26xx_TimestampProvider_Module_startup__E          
000045a9  ti_sysbios_family_arm_cc26xx_TimestampProvider_get32__E                   
1001b77d  ti_sysbios_family_arm_cc26xx_TimestampProvider_get64__E                   
1001bf6b  ti_sysbios_family_arm_cc26xx_TimestampProvider_getFreq__E                 
00001282  ti_sysbios_family_arm_cc26xx_TimestampProvider_useClockTimer__C           
000011fc  ti_sysbios_family_arm_m3_Hwi_E_alreadyDefined__C                          
00001200  ti_sysbios_family_arm_m3_Hwi_E_hwiLimitExceeded__C                        
1001a755  ti_sysbios_family_arm_m3_Hwi_Instance_finalize__E                         
10019fc1  ti_sysbios_family_arm_m3_Hwi_Instance_init__E                             
200017a0  ti_sysbios_family_arm_m3_Hwi_Module_State_0_excActive__A                  
20001794  ti_sysbios_family_arm_m3_Hwi_Module_State_0_excContext__A                 
20001798  ti_sysbios_family_arm_m3_Hwi_Module_State_0_excStack__A                   
00001284  ti_sysbios_family_arm_m3_Hwi_Module__id__C                                
20001728  ti_sysbios_family_arm_m3_Hwi_Module__root__V                              
1001b939  ti_sysbios_family_arm_m3_Hwi_Module__startupDone__S                       
20000144  ti_sysbios_family_arm_m3_Hwi_Module__state__V                             
1001aeb5  ti_sysbios_family_arm_m3_Hwi_Module_startup__E                            
00001204  ti_sysbios_family_arm_m3_Hwi_NUM_INTERRUPTS__C                            
00001070  ti_sysbios_family_arm_m3_Hwi_Object__DESC__C                              
1001c9e8  ti_sysbios_family_arm_m3_Hwi_Object__PARAMS__C                            
00001208  ti_sysbios_family_arm_m3_Hwi_Object__count__C                             
1001a7b9  ti_sysbios_family_arm_m3_Hwi_Object__create__S                            
1001b959  ti_sysbios_family_arm_m3_Hwi_Object__delete__S                            
1001bc39  ti_sysbios_family_arm_m3_Hwi_Object__destruct__S                          
1001b515  ti_sysbios_family_arm_m3_Hwi_Object__get__S                               
0000120c  ti_sysbios_family_arm_m3_Hwi_Object__table__C                             
200016e0  ti_sysbios_family_arm_m3_Hwi_Object__table__V                             
1001bf79  ti_sysbios_family_arm_m3_Hwi_Params__init__S                              
00001210  ti_sysbios_family_arm_m3_Hwi_ccr__C                                       
1001aabd  ti_sysbios_family_arm_m3_Hwi_construct                                    
00003b2d  ti_sysbios_family_arm_m3_Hwi_construct2__E                                
1001a8e5  ti_sysbios_family_arm_m3_Hwi_create                                       
1001c0a5  ti_sysbios_family_arm_m3_Hwi_delete                                       
1001c0a9  ti_sysbios_family_arm_m3_Hwi_destruct                                     
1001bf85  ti_sysbios_family_arm_m3_Hwi_disableFxn__E                                
1001af45  ti_sysbios_family_arm_m3_Hwi_disableInterrupt__E                          
1001a81d  ti_sysbios_family_arm_m3_Hwi_dispatchC__I                                 
20001bb4  ti_sysbios_family_arm_m3_Hwi_dispatchTable                                
1001c7a5  ti_sysbios_family_arm_m3_Hwi_dispatch__I                                  
1001c043  ti_sysbios_family_arm_m3_Hwi_doSwiRestore__I                              
1001c05b  ti_sysbios_family_arm_m3_Hwi_doTaskRestore__I                             
1001bf91  ti_sysbios_family_arm_m3_Hwi_enableFxn__E                                 
1001af89  ti_sysbios_family_arm_m3_Hwi_enableInterrupt__E                           
1001c901  ti_sysbios_family_arm_m3_Hwi_excHandlerAsm__I                             
00001214  ti_sysbios_family_arm_m3_Hwi_excHandlerFunc__C                            
1001b979  ti_sysbios_family_arm_m3_Hwi_excHandler__I                                
1001b099  ti_sysbios_family_arm_m3_Hwi_getStackInfo__E                              
1001a171  ti_sysbios_family_arm_m3_Hwi_initNVIC__E                                  
1001c8b9  ti_sysbios_family_arm_m3_Hwi_initStacks__E                                
00001218  ti_sysbios_family_arm_m3_Hwi_nullIsrFunc__C                               
0000121c  ti_sysbios_family_arm_m3_Hwi_numSparseInterrupts__C                       
e000e000  ti_sysbios_family_arm_m3_Hwi_nvic                                         
1001c93f  ti_sysbios_family_arm_m3_Hwi_pendSV__I                                    
1001bdc1  ti_sysbios_family_arm_m3_Hwi_plug__E                                      
10019e75  ti_sysbios_family_arm_m3_Hwi_postInit__I                                  
00001220  ti_sysbios_family_arm_m3_Hwi_priGroup__C                                  
20000000  ti_sysbios_family_arm_m3_Hwi_ramVectors                                   
00000000  ti_sysbios_family_arm_m3_Hwi_resetVectors                                 
1001c061  ti_sysbios_family_arm_m3_Hwi_restoreFxn__E                                
1001c957  ti_sysbios_family_arm_m3_Hwi_return                                       
1001bc55  ti_sysbios_family_arm_m3_Hwi_setPriority__E                               
1001c04b  ti_sysbios_family_arm_m3_Hwi_startup__E                                   
1001be35  ti_sysbios_family_arm_m3_Hwi_switchFromBootStack__E                       
1001c0ad  ti_sysbios_family_arm_m3_TaskSupport_Module__startupDone__S               
1001c86d  ti_sysbios_family_arm_m3_TaskSupport_buildTaskStack                       
1001bf9d  ti_sysbios_family_arm_m3_TaskSupport_getStackAlignment__E                 
1001c959  ti_sysbios_family_arm_m3_TaskSupport_glue                                 
00001224  ti_sysbios_family_arm_m3_TaskSupport_stackAlignment__C                    
1001b155  ti_sysbios_family_arm_m3_TaskSupport_start__E                             
1001c969  ti_sysbios_family_arm_m3_TaskSupport_swap__E                              
1001c921  ti_sysbios_family_xxx_Hwi_switchAndRunFunc                                
1001b999  ti_sysbios_gates_GateHwi_Handle__label__S                                 
1001b153  ti_sysbios_gates_GateHwi_Instance_init__E                                 
00001028  ti_sysbios_gates_GateHwi_Module__FXNS__C                                  
00001286  ti_sysbios_gates_GateHwi_Module__id__C                                    
20001730  ti_sysbios_gates_GateHwi_Module__root__V                                  
00001090  ti_sysbios_gates_GateHwi_Object__DESC__C                                  
1001cad8  ti_sysbios_gates_GateHwi_Object__PARAMS__C                                
1001b869  ti_sysbios_gates_GateHwi_Object__create__S                                
1001b9b9  ti_sysbios_gates_GateHwi_Object__delete__S                                
1001bfa9  ti_sysbios_gates_GateHwi_enter__E                                         
1001c067  ti_sysbios_gates_GateHwi_leave__E                                         
1001c0b1  ti_sysbios_gates_GateHwi_query__E                                         
1001b9d9  ti_sysbios_gates_GateMutex_Handle__label__S                               
1001cb68  ti_sysbios_gates_GateMutex_Instance_State_sem__O                          
1001bec1  ti_sysbios_gates_GateMutex_Instance_finalize__E                           
1001bc71  ti_sysbios_gates_GateMutex_Instance_init__E                               
0000104c  ti_sysbios_gates_GateMutex_Module__FXNS__C                                
00001288  ti_sysbios_gates_GateMutex_Module__id__C                                  
20001738  ti_sysbios_gates_GateMutex_Module__root__V                                
000010b0  ti_sysbios_gates_GateMutex_Object__DESC__C                                
1001caf0  ti_sysbios_gates_GateMutex_Object__PARAMS__C                              
1001b36d  ti_sysbios_gates_GateMutex_Object__create__S                              
1001b88d  ti_sysbios_gates_GateMutex_Object__delete__S                              
1001b9f9  ti_sysbios_gates_GateMutex_Object__destruct__S                            
200014b8  ti_sysbios_gates_GateMutex_Object__table__V                               
1001bfb5  ti_sysbios_gates_GateMutex_Params__init__S                                
1001b541  ti_sysbios_gates_GateMutex_construct                                      
1001b39d  ti_sysbios_gates_GateMutex_create                                         
1001c0b5  ti_sysbios_gates_GateMutex_delete                                         
1001c0b9  ti_sysbios_gates_GateMutex_destruct                                       
1001b3cd  ti_sysbios_gates_GateMutex_enter__E                                       
1001bdd9  ti_sysbios_gates_GateMutex_leave__E                                       
1001c0bd  ti_sysbios_gates_GateMutex_query__E                                       
1001b939  ti_sysbios_hal_Hwi_HwiProxy_Module__startupDone__S                        
1001b939  ti_sysbios_hal_Hwi_HwiProxy_Module__startupDone__S__mangled__             
1001bed1  ti_sysbios_hal_Hwi_HwiProxy_Object__create__S                             
1001b959  ti_sysbios_hal_Hwi_HwiProxy_Object__delete__S                             
1001bf79  ti_sysbios_hal_Hwi_HwiProxy_Params__init__S                               
1001bf79  ti_sysbios_hal_Hwi_HwiProxy_Params__init__S__mangled__                    
1001bc8d  ti_sysbios_hal_Hwi_HwiProxy_create                                        
1001c0c1  ti_sysbios_hal_Hwi_HwiProxy_delete                                        
1001af45  ti_sysbios_hal_Hwi_HwiProxy_disableInterrupt__E                           
1001af45  ti_sysbios_hal_Hwi_HwiProxy_disableInterrupt__E__mangled__                
1001af89  ti_sysbios_hal_Hwi_HwiProxy_enableInterrupt__E                            
1001af89  ti_sysbios_hal_Hwi_HwiProxy_enableInterrupt__E__mangled__                 
1001b099  ti_sysbios_hal_Hwi_HwiProxy_getStackInfo__E                               
1001b099  ti_sysbios_hal_Hwi_HwiProxy_getStackInfo__E__mangled__                    
1001c04b  ti_sysbios_hal_Hwi_HwiProxy_startup__E                                    
1001c04b  ti_sysbios_hal_Hwi_HwiProxy_startup__E__mangled__                         
1001be35  ti_sysbios_hal_Hwi_HwiProxy_switchFromBootStack__E                        
1001be35  ti_sysbios_hal_Hwi_HwiProxy_switchFromBootStack__E__mangled__             
1001c039  ti_sysbios_hal_Hwi_Instance_finalize__E                                   
1001b81d  ti_sysbios_hal_Hwi_Instance_init__E                                       
20001740  ti_sysbios_hal_Hwi_Module__root__V                                        
1001be5d  ti_sysbios_hal_Hwi_Module_startup__E                                      
000010d0  ti_sysbios_hal_Hwi_Object__DESC__C                                        
1001ca18  ti_sysbios_hal_Hwi_Object__PARAMS__C                                      
1001ba19  ti_sysbios_hal_Hwi_Object__delete__S                                      
1001a881  ti_sysbios_hal_Hwi_create                                                 
1001c0c5  ti_sysbios_hal_Hwi_delete                                                 
1001af45  ti_sysbios_hal_Hwi_disableInterrupt__E                                    
1001af45  ti_sysbios_hal_Hwi_disableInterrupt__E                                    
1001af89  ti_sysbios_hal_Hwi_enableInterrupt__E                                     
1001af89  ti_sysbios_hal_Hwi_enableInterrupt__E                                     
1001b099  ti_sysbios_hal_Hwi_getStackInfo__E                                        
1001b099  ti_sysbios_hal_Hwi_getStackInfo__E                                        
1001b56d  ti_sysbios_hal_Hwi_initStack                                              
1001c04b  ti_sysbios_hal_Hwi_startup__E                                             
1001c04b  ti_sysbios_hal_Hwi_startup__E                                             
1001be35  ti_sysbios_hal_Hwi_switchFromBootStack__E                                 
1001be35  ti_sysbios_hal_Hwi_switchFromBootStack__E                                 
00001228  ti_sysbios_heaps_HeapMem_E_memory__C                                      
1001ba39  ti_sysbios_heaps_HeapMem_Handle__label__S                                 
1001b18d  ti_sysbios_heaps_HeapMem_Instance_init__E                                 
1001b9d9  ti_sysbios_heaps_HeapMem_Module_GateProxy_Handle__label__S                
1001b9d9  ti_sysbios_heaps_HeapMem_Module_GateProxy_Handle__label__S__mangled__     
1001b88d  ti_sysbios_heaps_HeapMem_Module_GateProxy_Object__delete__S               
1001bfb5  ti_sysbios_heaps_HeapMem_Module_GateProxy_Params__init__S                 
1001bfb5  ti_sysbios_heaps_HeapMem_Module_GateProxy_Params__init__S__mangled__      
1001c0c9  ti_sysbios_heaps_HeapMem_Module_GateProxy_enter__E                        
1001c0cd  ti_sysbios_heaps_HeapMem_Module_GateProxy_leave__E                        
1001c0bd  ti_sysbios_heaps_HeapMem_Module_GateProxy_query__E                        
1001c0bd  ti_sysbios_heaps_HeapMem_Module_GateProxy_query__E__mangled__             
00001000  ti_sysbios_heaps_HeapMem_Module__FXNS__C                                  
0000122c  ti_sysbios_heaps_HeapMem_Module__gateObj__C                               
0000128a  ti_sysbios_heaps_HeapMem_Module__id__C                                    
20001748  ti_sysbios_heaps_HeapMem_Module__root__V                                  
000010f0  ti_sysbios_heaps_HeapMem_Object__DESC__C                                  
1001ca6c  ti_sysbios_heaps_HeapMem_Object__PARAMS__C                                
00001230  ti_sysbios_heaps_HeapMem_Object__count__C                                 
1001b599  ti_sysbios_heaps_HeapMem_Object__create__S                                
1001ba59  ti_sysbios_heaps_HeapMem_Object__delete__S                                
1001b5c5  ti_sysbios_heaps_HeapMem_Object__get__S                                   
00001234  ti_sysbios_heaps_HeapMem_Object__table__C                                 
200016f8  ti_sysbios_heaps_HeapMem_Object__table__V                                 
1001a615  ti_sysbios_heaps_HeapMem_allocUnprotected__E                              
1001ab15  ti_sysbios_heaps_HeapMem_alloc__E                                         
1001ab6d  ti_sysbios_heaps_HeapMem_freeUnprotected__E                               
1001b3fd  ti_sysbios_heaps_HeapMem_free__E                                          
1001aefd  ti_sysbios_heaps_HeapMem_getStats__E                                      
00003201  ti_sysbios_heaps_HeapMem_initPrimary__I                                   
1001b235  ti_sysbios_heaps_HeapMem_init__I                                          
1001c06d  ti_sysbios_heaps_HeapMem_isBlocking__E                                    
00004c6c  ti_sysbios_heaps_HeapMem_primaryHeapBaseAddr__C                           
00004c70  ti_sysbios_heaps_HeapMem_primaryHeapEndAddr__C                            
00001238  ti_sysbios_heaps_HeapMem_reqAlign__C                                      
1001bf41  ti_sysbios_heaps_HeapMem_restore__E                                       
1001be09  ti_sysbios_knl_Clock_Instance_finalize__E                                 
1001b1c5  ti_sysbios_knl_Clock_Instance_init__E                                     
1001cb6c  ti_sysbios_knl_Clock_Module_State_clockQ__O                               
20001750  ti_sysbios_knl_Clock_Module__root__V                                      
20000178  ti_sysbios_knl_Clock_Module__state__V                                     
1001ba79  ti_sysbios_knl_Clock_Module_startup__E                                    
00001110  ti_sysbios_knl_Clock_Object__DESC__C                                      
1001ca90  ti_sysbios_knl_Clock_Object__PARAMS__C                                    
1001b8b1  ti_sysbios_knl_Clock_Object__delete__S                                    
1001ba99  ti_sysbios_knl_Clock_Object__destruct__S                                  
200016a0  ti_sysbios_knl_Clock_Object__table__V                                     
1001bfc1  ti_sysbios_knl_Clock_Params__init__S                                      
1001b8f9  ti_sysbios_knl_Clock_TimerProxy_Module__startupDone__S                    
1001b8f9  ti_sysbios_knl_Clock_TimerProxy_Module__startupDone__S__mangled__         
1001bee1  ti_sysbios_knl_Clock_TimerProxy_getCurrentTick__E                         
1001c0d1  ti_sysbios_knl_Clock_TimerProxy_getExpiredTicks__E                        
1001bef1  ti_sysbios_knl_Clock_TimerProxy_getMaxTicks__E                            
1001c0d5  ti_sysbios_knl_Clock_TimerProxy_getPeriod__E                              
1001bf01  ti_sysbios_knl_Clock_TimerProxy_setNextTick__E                            
1001b4e9  ti_sysbios_knl_Clock_TimerProxy_startup__E                                
1001b4e9  ti_sysbios_knl_Clock_TimerProxy_startup__E__mangled__                     
1001b7a5  ti_sysbios_knl_Clock_addI__E                                              
1001b269  ti_sysbios_knl_Clock_construct                                            
1001b1fd  ti_sysbios_knl_Clock_create                                               
1001c0d9  ti_sysbios_knl_Clock_delete                                               
1001c0dd  ti_sysbios_knl_Clock_destruct                                             
000044a9  ti_sysbios_knl_Clock_doTick__I                                            
00003f81  ti_sysbios_knl_Clock_getTicksUntilInterrupt__E                            
1001b29d  ti_sysbios_knl_Clock_getTicks__E                                          
1001bfcd  ti_sysbios_knl_Clock_getTimerHandle__E                                    
1001b843  ti_sysbios_knl_Clock_logTick__E                                           
1001c0e1  ti_sysbios_knl_Clock_removeI__E                                           
1001bca9  ti_sysbios_knl_Clock_scheduleNextTick__E                                  
1001c0e5  ti_sysbios_knl_Clock_setTimeout__E                                        
1001a1f1  ti_sysbios_knl_Clock_startI__E                                            
1001be1f  ti_sysbios_knl_Clock_start__E                                             
1001bab9  ti_sysbios_knl_Clock_stop__E                                              
0000128e  ti_sysbios_knl_Clock_tickMode__C                                          
00004c74  ti_sysbios_knl_Clock_tickPeriod__C                                        
0000123c  ti_sysbios_knl_Clock_triggerClock__C                                      
1001bdbf  ti_sysbios_knl_Clock_triggerFunc__I                                       
1001a2f1  ti_sysbios_knl_Clock_walkQueueDynamic__E                                  
0000248d  ti_sysbios_knl_Clock_workFuncDynamic__E                                   
1001a369  ti_sysbios_knl_Clock_workFunc__E                                          
1001cb70  ti_sysbios_knl_Event_Instance_State_pendQ__O                              
1001be49  ti_sysbios_knl_Event_Instance_init__E                                     
20001758  ti_sysbios_knl_Event_Module__root__V                                      
00001130  ti_sysbios_knl_Event_Object__DESC__C                                      
1001cb08  ti_sysbios_knl_Event_Object__PARAMS__C                                    
1001bad9  ti_sysbios_knl_Event_Object__delete__S                                    
1001bcc5  ti_sysbios_knl_Event_Object__destruct__S                                  
1001bfd9  ti_sysbios_knl_Event_Params__init__S                                      
1001baf9  ti_sysbios_knl_Event_checkEvents__I                                       
1001b5f1  ti_sysbios_knl_Event_construct                                            
1001b42d  ti_sysbios_knl_Event_create                                               
1001c0e9  ti_sysbios_knl_Event_delete                                               
1001c0ed  ti_sysbios_knl_Event_destruct                                             
1001b61d  ti_sysbios_knl_Event_pendTimeout__I                                       
10019bf9  ti_sysbios_knl_Event_pend__E                                              
1001a455  ti_sysbios_knl_Event_post__E                                              
1001be6f  ti_sysbios_knl_Event_sync__E                                              
00004c50  ti_sysbios_knl_Idle_funcList__A                                           
000011f0  ti_sysbios_knl_Idle_funcList__C                                           
1001c053  ti_sysbios_knl_Idle_loop__E                                               
1001bb19  ti_sysbios_knl_Idle_run__E                                                
1001cb74  ti_sysbios_knl_Mailbox_Instance_State_dataQue__O                          
1001cb78  ti_sysbios_knl_Mailbox_Instance_State_dataSem__O                          
1001cb7c  ti_sysbios_knl_Mailbox_Instance_State_freeQue__O                          
1001cb80  ti_sysbios_knl_Mailbox_Instance_State_freeSem__O                          
1001a4c5  ti_sysbios_knl_Mailbox_Instance_finalize__E                               
10019dad  ti_sysbios_knl_Mailbox_Instance_init__E                                   
20001760  ti_sysbios_knl_Mailbox_Module__root__V                                    
1001afcd  ti_sysbios_knl_Mailbox_Module_startup__E                                  
00001150  ti_sysbios_knl_Mailbox_Object__DESC__C                                    
1001c9b4  ti_sysbios_knl_Mailbox_Object__PARAMS__C                                  
00001240  ti_sysbios_knl_Mailbox_Object__count__C                                   
1001bb39  ti_sysbios_knl_Mailbox_Object__delete__S                                  
1001bce1  ti_sysbios_knl_Mailbox_Object__destruct__S                                
1001b649  ti_sysbios_knl_Mailbox_Object__get__S                                     
00001244  ti_sysbios_knl_Mailbox_Object__table__C                                   
1001bfe5  ti_sysbios_knl_Mailbox_Params__init__S                                    
1001abc5  ti_sysbios_knl_Mailbox_construct                                          
1001a945  ti_sysbios_knl_Mailbox_create                                             
1001c0f1  ti_sysbios_knl_Mailbox_delete                                             
1001c0f5  ti_sysbios_knl_Mailbox_destruct                                           
00001248  ti_sysbios_knl_Mailbox_maxTypeAlign__C                                    
1001a535  ti_sysbios_knl_Mailbox_pend__E                                            
1001b675  ti_sysbios_knl_Mailbox_postInit__I                                        
1001a0ed  ti_sysbios_knl_Mailbox_post__E                                            
1001c073  ti_sysbios_knl_Queue_Instance_init__E                                     
20001768  ti_sysbios_knl_Queue_Module__root__V                                      
00001170  ti_sysbios_knl_Queue_Object__DESC__C                                      
1001cb20  ti_sysbios_knl_Queue_Object__PARAMS__C                                    
0000124c  ti_sysbios_knl_Queue_Object__count__C                                     
1001bb59  ti_sysbios_knl_Queue_Object__delete__S                                    
1001bcfd  ti_sysbios_knl_Queue_Object__destruct__S                                  
1001bb79  ti_sysbios_knl_Queue_Object__get__S                                       
00001250  ti_sysbios_knl_Queue_Object__table__C                                     
1001b6a1  ti_sysbios_knl_Queue_construct                                            
1001b6cd  ti_sysbios_knl_Queue_create                                               
1001c0f9  ti_sysbios_knl_Queue_delete                                               
1001bff1  ti_sysbios_knl_Queue_dequeue__E                                           
1001c0fd  ti_sysbios_knl_Queue_destruct                                             
1001c079  ti_sysbios_knl_Queue_elemClear__E                                         
1001bf4f  ti_sysbios_knl_Queue_empty__E                                             
1001bffd  ti_sysbios_knl_Queue_enqueue__E                                           
1001bd19  ti_sysbios_knl_Queue_get__E                                               
1001c101  ti_sysbios_knl_Queue_head__E                                              
1001c105  ti_sysbios_knl_Queue_next__E                                              
1001bd35  ti_sysbios_knl_Queue_put__E                                               
1001bf5d  ti_sysbios_knl_Queue_remove__E                                            
1001cb84  ti_sysbios_knl_Semaphore_Instance_State_pendQ__O                          
1001b7cd  ti_sysbios_knl_Semaphore_Instance_finalize__E                             
1001a685  ti_sysbios_knl_Semaphore_Instance_init__E                                 
20001770  ti_sysbios_knl_Semaphore_Module__root__V                                  
00001190  ti_sysbios_knl_Semaphore_Object__DESC__C                                  
1001cab4  ti_sysbios_knl_Semaphore_Object__PARAMS__C                                
1001b8d5  ti_sysbios_knl_Semaphore_Object__delete__S                                
1001bb99  ti_sysbios_knl_Semaphore_Object__destruct__S                              
1001c009  ti_sysbios_knl_Semaphore_Params__init__S                                  
1001b45d  ti_sysbios_knl_Semaphore_construct                                        
1001b2d1  ti_sysbios_knl_Semaphore_create                                           
1001c109  ti_sysbios_knl_Semaphore_delete                                           
1001c10d  ti_sysbios_knl_Semaphore_destruct                                         
00001254  ti_sysbios_knl_Semaphore_eventPost__C                                     
00001258  ti_sysbios_knl_Semaphore_eventSync__C                                     
1001b6f9  ti_sysbios_knl_Semaphore_pendTimeout__I                                   
10019b05  ti_sysbios_knl_Semaphore_pend__E                                          
1001a3e1  ti_sysbios_knl_Semaphore_post__E                                          
1001bf77  ti_sysbios_knl_Swi_Instance_finalize__E                                   
1001a9a5  ti_sysbios_knl_Swi_Instance_init__E                                       
20001610  ti_sysbios_knl_Swi_Module_State_0_readyQ__A                               
20001778  ti_sysbios_knl_Swi_Module__root__V                                        
200001c8  ti_sysbios_knl_Swi_Module__state__V                                       
1001c07f  ti_sysbios_knl_Swi_Module_startup__E                                      
000011b0  ti_sysbios_knl_Swi_Object__DESC__C                                        
1001ca44  ti_sysbios_knl_Swi_Object__PARAMS__C                                      
0000125c  ti_sysbios_knl_Swi_Object__count__C                                       
1001bbb9  ti_sysbios_knl_Swi_Object__delete__S                                      
1001bd51  ti_sysbios_knl_Swi_Object__destruct__S                                    
1001b725  ti_sysbios_knl_Swi_Object__get__S                                         
00001260  ti_sysbios_knl_Swi_Object__table__C                                       
20001640  ti_sysbios_knl_Swi_Object__table__V                                       
1001c015  ti_sysbios_knl_Swi_Params__init__S                                        
1001ad79  ti_sysbios_knl_Swi_construct                                              
00004321  ti_sysbios_knl_Swi_construct2__E                                          
1001ac1d  ti_sysbios_knl_Swi_create                                                 
1001c111  ti_sysbios_knl_Swi_delete                                                 
1001c115  ti_sysbios_knl_Swi_destruct                                               
1001bf11  ti_sysbios_knl_Swi_disable__E                                             
1001bf21  ti_sysbios_knl_Swi_enabled__E                                             
0000463d  ti_sysbios_knl_Swi_getTrigger__E                                          
00001264  ti_sysbios_knl_Swi_numPriorities__C                                       
000043fd  ti_sysbios_knl_Swi_or__E                                                  
1001c119  ti_sysbios_knl_Swi_postInit__I                                            
1001b011  ti_sysbios_knl_Swi_post__E                                                
1001a6ed  ti_sysbios_knl_Swi_restoreHwi__E                                          
1001b305  ti_sysbios_knl_Swi_restore__E                                             
1001adc9  ti_sysbios_knl_Swi_runLoop__I                                             
1001ac75  ti_sysbios_knl_Swi_run__I                                                 
1001ad25  ti_sysbios_knl_Swi_schedule__I                                            
1001c085  ti_sysbios_knl_Swi_startup__E                                             
200017a8  ti_sysbios_knl_Task_Instance_State_0_stack__A                             
1001a059  ti_sysbios_knl_Task_Instance_finalize__E                                  
10019ce1  ti_sysbios_knl_Task_Instance_init__E                                      
2000179c  ti_sysbios_knl_Task_Module_State_0_idleTask__A                            
20001670  ti_sysbios_knl_Task_Module_State_0_readyQ__A                              
1001cb88  ti_sysbios_knl_Task_Module_State_inactiveQ__O                             
20001780  ti_sysbios_knl_Task_Module__root__V                                       
20000100  ti_sysbios_knl_Task_Module__state__V                                      
1001aa05  ti_sysbios_knl_Task_Module_startup__E                                     
000011d0  ti_sysbios_knl_Task_Object__DESC__C                                       
1001c978  ti_sysbios_knl_Task_Object__PARAMS__C                                     
00001268  ti_sysbios_knl_Task_Object__count__C                                      
1001bbd9  ti_sysbios_knl_Task_Object__delete__S                                     
1001bd6d  ti_sysbios_knl_Task_Object__destruct__S                                   
1001bbf9  ti_sysbios_knl_Task_Object__get__S                                        
00004c78  ti_sysbios_knl_Task_Object__heap__C                                       
0000126c  ti_sysbios_knl_Task_Object__table__C                                      
2000150c  ti_sysbios_knl_Task_Object__table__V                                      
1001c021  ti_sysbios_knl_Task_Params__init__S                                       
1001c0ad  ti_sysbios_knl_Task_SupportProxy_Module__startupDone__S                   
1001c0ad  ti_sysbios_knl_Task_SupportProxy_Module__startupDone__S__mangled__        
1001bf9d  ti_sysbios_knl_Task_SupportProxy_getStackAlignment__E                     
1001bf9d  ti_sysbios_knl_Task_SupportProxy_getStackAlignment__E__mangled__          
1001b155  ti_sysbios_knl_Task_SupportProxy_start__E                                 
1001b155  ti_sysbios_knl_Task_SupportProxy_start__E__mangled__                      
1001c969  ti_sysbios_knl_Task_SupportProxy_swap__E                                  
1001c969  ti_sysbios_knl_Task_SupportProxy_swap__E__mangled__                       
00001270  ti_sysbios_knl_Task_allBlockedFunc__C                                     
1001b055  ti_sysbios_knl_Task_allBlockedFunction__I                                 
1001b339  ti_sysbios_knl_Task_blockI__E                                             
1001ae19  ti_sysbios_knl_Task_construct                                             
1001accd  ti_sysbios_knl_Task_create                                                
00001274  ti_sysbios_knl_Task_defaultStackHeap__C                                   
00001278  ti_sysbios_knl_Task_defaultStackSize__C                                   
1001c11d  ti_sysbios_knl_Task_delete                                                
1001c121  ti_sysbios_knl_Task_destruct                                              
1001bf31  ti_sysbios_knl_Task_disable__E                                            
1001c08b  ti_sysbios_knl_Task_enable__E                                             
1001bd89  ti_sysbios_knl_Task_enter__I                                              
1001b119  ti_sysbios_knl_Task_exit__E                                               
0000128c  ti_sysbios_knl_Task_initStackFlag__C                                      
0000127c  ti_sysbios_knl_Task_numConstructedTasks__C                                
1001a271  ti_sysbios_knl_Task_postInit__I                                           
1001b48d  ti_sysbios_knl_Task_processVitalTaskFlag__I                               
1001bc19  ti_sysbios_knl_Task_restoreHwi__E                                         
1001b7f5  ti_sysbios_knl_Task_restore__E                                            
1001ae69  ti_sysbios_knl_Task_schedule__I                                           
1001c02d  ti_sysbios_knl_Task_self__E                                               
1001bda5  ti_sysbios_knl_Task_sleepTimeout__I                                       
1001a5a5  ti_sysbios_knl_Task_sleep__E                                              
1001aa61  ti_sysbios_knl_Task_startCore__E                                          
1001c125  ti_sysbios_knl_Task_startup__E                                            
1001c971  ti_sysbios_knl_Task_swapReturn                                            
1001b751  ti_sysbios_knl_Task_unblockI__E                                           
1001bdf1  ti_sysbios_knl_Task_unblock__E                                            
1001b0d9  ti_sysbios_knl_Task_yield__E                                              
00001304  ti_sysbios_rom_ROM_ti_sysbios_family_arm_cc26xx_Timer_getCount64__E       
00001308  ti_sysbios_rom_ROM_ti_sysbios_family_arm_cc26xx_Timer_getCurrentTick__E   
0000130c  ti_sysbios_rom_ROM_ti_sysbios_family_arm_cc26xx_Timer_getMaxTicks__E      
00001310  ti_sysbios_rom_ROM_ti_sysbios_family_arm_cc26xx_Timer_initDevice__I       
00001314  ti_sysbios_rom_ROM_ti_sysbios_family_arm_cc26xx_Timer_setNextTick__E      
00001318  ti_sysbios_rom_ROM_ti_sysbios_family_arm_cc26xx_Timer_setThreshold__I     
0000131c  ti_sysbios_rom_ROM_ti_sysbios_family_arm_cc26xx_Timer_start__E            
00001320  ti_sysbios_rom_ROM_ti_sysbios_family_arm_cc26xx_TimestampProvider_get32__E
00001324  ti_sysbios_rom_ROM_xdc_runtime_Startup_getState__I                        
00001328  ti_sysbios_rom_ROM_xdc_runtime_System_SupportProxy_abort__E               
0000132c  ti_sysbios_rom_ROM_xdc_runtime_System_SupportProxy_exit__E                
10019b00  ti_sysbios_rom_cortexm_cc26xx_r2_CC26xx_REVISION__C                       
00004a98  uartCC26XXHWAttrs                                                         
200019a8  uartCC26XXObjects                                                         
20001c7c  uartCC26XXRingBuffer                                                      
200017a2  uartEnabled                                                               
00004ba5  userPrompt                                                                
00000001  xdc_rov_runtime_Mon__checksum                                             
00000001  xdc_rov_runtime_Mon__write                                                
000012a0  xdc_runtime_Assert_E_assertFailed__C                                      
1001c465  xdc_runtime_Assert_raise__I                                               
1001c5b9  xdc_runtime_Core_assignLabel__I                                           
1001c4ad  xdc_runtime_Core_assignParams__I                                          
1001c4f5  xdc_runtime_Core_constructObject__I                                       
1001c2c9  xdc_runtime_Core_createObject__I                                          
1001c3b5  xdc_runtime_Core_deleteObject__I                                          
1001c6a5  xdc_runtime_Core_destructObject__I                                        
000012a4  xdc_runtime_Error_E_memory__C                                             
200016c0  xdc_runtime_Error_IgnoreBlock                                             
20000204  xdc_runtime_Error_Module__state__V                                        
1001c6bd  xdc_runtime_Error_check__E                                                
000012f8  xdc_runtime_Error_maxDepth__C                                             
000012a8  xdc_runtime_Error_policyFxn__C                                            
0000428d  xdc_runtime_Error_policyMin__E                                            
1001c413  xdc_runtime_Error_policySpin__E                                           
00001300  xdc_runtime_Error_policy__C                                               
000012ac  xdc_runtime_Error_raiseHook__C                                            
1001c66d  xdc_runtime_Error_raiseX__E                                               
1001c795  xdc_runtime_Gate_enterSystem__E                                           
1001c789  xdc_runtime_Gate_leaveSystem__E                                           
000012b0  xdc_runtime_IGateProvider_Interface__BASE__C                              
000012b4  xdc_runtime_IHeap_Interface__BASE__C                                      
000012b8  xdc_runtime_IModule_Interface__BASE__C                                    
1001b999  xdc_runtime_Main_Module_GateProxy_Handle__label__S                        
1001c0b1  xdc_runtime_Main_Module_GateProxy_query__E                                
1001ba39  xdc_runtime_Memory_HeapProxy_Handle__label__S                             
1001ba39  xdc_runtime_Memory_HeapProxy_Handle__label__S__mangled__                  
1001ba59  xdc_runtime_Memory_HeapProxy_Object__delete__S                            
1001c775  xdc_runtime_Memory_HeapProxy_alloc__E                                     
1001c77f  xdc_runtime_Memory_HeapProxy_free__E                                      
000012fa  xdc_runtime_Memory_Module__id__C                                          
20000200  xdc_runtime_Memory_Module__state__V                                       
1001c349  xdc_runtime_Memory_alloc__E                                               
1001c751  xdc_runtime_Memory_calloc__E                                              
000012bc  xdc_runtime_Memory_defaultHeapInstance__C                                 
1001c705  xdc_runtime_Memory_free__E                                                
1001c75d  xdc_runtime_Memory_getMaxDefaultTypeAlign__E                              
1001c689  xdc_runtime_Memory_valloc__E                                              
200001f0  xdc_runtime_Startup_Module__state__V                                      
00000001  xdc_runtime_Startup__EXECFXN__C                                           
00000001  xdc_runtime_Startup__RESETFXN__C                                          
000012c0  xdc_runtime_Startup_execImpl__C                                           
1001c415  xdc_runtime_Startup_exec__E                                               
000044e1  xdc_runtime_Startup_exec__I                                               
00004c2c  xdc_runtime_Startup_firstFxns__A                                          
00001290  xdc_runtime_Startup_firstFxns__C                                          
0000325d  xdc_runtime_Startup_getState__I                                           
00001298  xdc_runtime_Startup_lastFxns__C                                           
000012c4  xdc_runtime_Startup_maxPasses__C                                          
00004715  xdc_runtime_Startup_reset__I                                              
1001c769  xdc_runtime_Startup_rtsDone__E                                            
00004be2  xdc_runtime_Startup_sfxnRts__A                                            
000012c8  xdc_runtime_Startup_sfxnRts__C                                            
00004b0c  xdc_runtime_Startup_sfxnTab__A                                            
000012cc  xdc_runtime_Startup_sfxnTab__C                                            
000012d0  xdc_runtime_Startup_startModsFxn__C                                       
1001c129  xdc_runtime_Startup_startMods__I                                          
000012d4  xdc_runtime_SysCallback_abortFxn__C                                       
1001c715  xdc_runtime_SysCallback_abort__E                                          
00003147  xdc_runtime_SysCallback_defaultAbort                                      
000033bf  xdc_runtime_SysCallback_defaultExit                                       
000012d8  xdc_runtime_SysCallback_exitFxn__C                                        
1001c725  xdc_runtime_SysCallback_exit__E                                           
1001b999  xdc_runtime_System_Module_GateProxy_Handle__label__S                      
1001b999  xdc_runtime_System_Module_GateProxy_Handle__label__S__mangled__           
1001b9b9  xdc_runtime_System_Module_GateProxy_Object__delete__S                     
1001c799  xdc_runtime_System_Module_GateProxy_enter__E                              
1001c79d  xdc_runtime_System_Module_GateProxy_leave__E                              
1001c0b1  xdc_runtime_System_Module_GateProxy_query__E                              
1001c0b1  xdc_runtime_System_Module_GateProxy_query__E__mangled__                   
20001788  xdc_runtime_System_Module_State_0_atexitHandlers__A                       
200001f8  xdc_runtime_System_Module__state__V                                       
1001c78f  xdc_runtime_System_Module_startup__E                                      
1001c715  xdc_runtime_System_SupportProxy_abort__E                                  
1001c725  xdc_runtime_System_SupportProxy_exit__E                                   
000012dc  xdc_runtime_System_abortFxn__C                                            
1001c7a1  xdc_runtime_System_abortSpin__E                                           
1001c64d  xdc_runtime_System_abort__E                                               
1001c581  xdc_runtime_System_atexit__E                                              
000012e0  xdc_runtime_System_exitFxn__C                                             
1001c7a3  xdc_runtime_System_exitSpin__E                                            
1001c6d5  xdc_runtime_System_exit__E                                                
000012e4  xdc_runtime_System_maxAtexitHandlers__C                                   
1001c5ed  xdc_runtime_System_processAtExit__E                                       
000012fc  xdc_runtime_Text_charCnt__C                                               
00004ae7  xdc_runtime_Text_charTab__A                                               
000012e8  xdc_runtime_Text_charTab__C                                               
1001c621  xdc_runtime_Text_cordText__E                                              
000012fe  xdc_runtime_Text_isLoaded__C                                              
000012ec  xdc_runtime_Text_nameEmpty__C                                             
000012f0  xdc_runtime_Text_nameStatic__C                                            
000012f4  xdc_runtime_Text_nameUnknown__C                                           
1001c6ed  xdc_runtime_Text_ropeText__E                                              
1001c735  xdc_runtime_Timestamp_SupportProxy_get32__E                               
000045a9  xdc_runtime_Timestamp_SupportProxy_get32__E__mangled__                    
1001b77d  xdc_runtime_Timestamp_SupportProxy_get64__E                               
1001b77d  xdc_runtime_Timestamp_SupportProxy_get64__E__mangled__                    
1001bf6b  xdc_runtime_Timestamp_SupportProxy_getFreq__E                             
1001bf6b  xdc_runtime_Timestamp_SupportProxy_getFreq__E__mangled__                  
1001c735  xdc_runtime_Timestamp_get32__E                                            
1001c735  xdc_runtime_Timestamp_get32__E                                            
1001b77d  xdc_runtime_Timestamp_get64__E                                            
1001b77d  xdc_runtime_Timestamp_get64__E                                            
1001bf6b  xdc_runtime_Timestamp_getFreq__E                                          
1001bf6b  xdc_runtime_Timestamp_getFreq__E                                          


GLOBAL SYMBOLS: SORTED BY Symbol Address 

address   name                                                                      
-------   ----                                                                      
00000000  __ASM__                                                                   
00000000  ti_sysbios_family_arm_m3_Hwi_resetVectors                                 
00000001  xdc_rov_runtime_Mon__checksum                                             
00000001  xdc_rov_runtime_Mon__write                                                
00000001  xdc_runtime_Startup__EXECFXN__C                                           
00000001  xdc_runtime_Startup__RESETFXN__C                                          
0000003d  PowerCC26XX_auxISR                                                        
00000077  __ISA__                                                                   
00000089  __PLAT__                                                                  
000000b0  __TARG__                                                                  
000000d5  __TRDR__                                                                  
00000351  Power_sleep                                                               
00000400  __STACK_SIZE                                                              
00000585  NOROM_SysCtrlSetRechargeBeforePowerDown                                   
000007a5  PIN_init                                                                  
00000955  PowerCC26XX_doCalibrate                                                   
00000ae5  UARTCC26XX_open                                                           
00000c49  I2CCC26XX_open                                                            
00000d95  UARTCC26XX_hwiIntFxn                                                      
00000edd  simpleConsole                                                             
00001000  HEAPSIZE                                                                  
00001000  ti_sysbios_heaps_HeapMem_Module__FXNS__C                                  
00001028  ti_sysbios_gates_GateHwi_Module__FXNS__C                                  
0000104c  ti_sysbios_gates_GateMutex_Module__FXNS__C                                
00001070  ti_sysbios_family_arm_m3_Hwi_Object__DESC__C                              
00001090  ti_sysbios_gates_GateHwi_Object__DESC__C                                  
000010b0  ti_sysbios_gates_GateMutex_Object__DESC__C                                
000010d0  ti_sysbios_hal_Hwi_Object__DESC__C                                        
000010f0  ti_sysbios_heaps_HeapMem_Object__DESC__C                                  
00001110  ti_sysbios_knl_Clock_Object__DESC__C                                      
00001130  ti_sysbios_knl_Event_Object__DESC__C                                      
00001150  ti_sysbios_knl_Mailbox_Object__DESC__C                                    
00001170  ti_sysbios_knl_Queue_Object__DESC__C                                      
00001190  ti_sysbios_knl_Semaphore_Object__DESC__C                                  
000011b0  ti_sysbios_knl_Swi_Object__DESC__C                                        
000011d0  ti_sysbios_knl_Task_Object__DESC__C                                       
000011f0  ti_sysbios_knl_Idle_funcList__C                                           
000011f8  ti_sysbios_family_arm_cc26xx_Timer_startupNeeded__C                       
000011fc  ti_sysbios_family_arm_m3_Hwi_E_alreadyDefined__C                          
00001200  ti_sysbios_family_arm_m3_Hwi_E_hwiLimitExceeded__C                        
00001204  ti_sysbios_family_arm_m3_Hwi_NUM_INTERRUPTS__C                            
00001208  ti_sysbios_family_arm_m3_Hwi_Object__count__C                             
0000120c  ti_sysbios_family_arm_m3_Hwi_Object__table__C                             
00001210  ti_sysbios_family_arm_m3_Hwi_ccr__C                                       
00001214  ti_sysbios_family_arm_m3_Hwi_excHandlerFunc__C                            
00001218  ti_sysbios_family_arm_m3_Hwi_nullIsrFunc__C                               
0000121c  ti_sysbios_family_arm_m3_Hwi_numSparseInterrupts__C                       
00001220  ti_sysbios_family_arm_m3_Hwi_priGroup__C                                  
00001224  ti_sysbios_family_arm_m3_TaskSupport_stackAlignment__C                    
00001228  ti_sysbios_heaps_HeapMem_E_memory__C                                      
0000122c  ti_sysbios_heaps_HeapMem_Module__gateObj__C                               
00001230  ti_sysbios_heaps_HeapMem_Object__count__C                                 
00001234  ti_sysbios_heaps_HeapMem_Object__table__C                                 
00001238  ti_sysbios_heaps_HeapMem_reqAlign__C                                      
0000123c  ti_sysbios_knl_Clock_triggerClock__C                                      
00001240  ti_sysbios_knl_Mailbox_Object__count__C                                   
00001244  ti_sysbios_knl_Mailbox_Object__table__C                                   
00001248  ti_sysbios_knl_Mailbox_maxTypeAlign__C                                    
0000124c  ti_sysbios_knl_Queue_Object__count__C                                     
00001250  ti_sysbios_knl_Queue_Object__table__C                                     
00001254  ti_sysbios_knl_Semaphore_eventPost__C                                     
00001258  ti_sysbios_knl_Semaphore_eventSync__C                                     
0000125c  ti_sysbios_knl_Swi_Object__count__C                                       
00001260  ti_sysbios_knl_Swi_Object__table__C                                       
00001264  ti_sysbios_knl_Swi_numPriorities__C                                       
00001268  ti_sysbios_knl_Task_Object__count__C                                      
0000126c  ti_sysbios_knl_Task_Object__table__C                                      
00001270  ti_sysbios_knl_Task_allBlockedFunc__C                                     
00001274  ti_sysbios_knl_Task_defaultStackHeap__C                                   
00001278  ti_sysbios_knl_Task_defaultStackSize__C                                   
0000127c  ti_sysbios_knl_Task_numConstructedTasks__C                                
00001280  ti_sysbios_family_arm_cc26xx_Timer_Module__id__C                          
00001282  ti_sysbios_family_arm_cc26xx_TimestampProvider_useClockTimer__C           
00001284  ti_sysbios_family_arm_m3_Hwi_Module__id__C                                
00001286  ti_sysbios_gates_GateHwi_Module__id__C                                    
00001288  ti_sysbios_gates_GateMutex_Module__id__C                                  
0000128a  ti_sysbios_heaps_HeapMem_Module__id__C                                    
0000128c  ti_sysbios_knl_Task_initStackFlag__C                                      
0000128e  ti_sysbios_knl_Clock_tickMode__C                                          
00001290  xdc_runtime_Startup_firstFxns__C                                          
00001298  xdc_runtime_Startup_lastFxns__C                                           
000012a0  xdc_runtime_Assert_E_assertFailed__C                                      
000012a4  xdc_runtime_Error_E_memory__C                                             
000012a8  xdc_runtime_Error_policyFxn__C                                            
000012ac  xdc_runtime_Error_raiseHook__C                                            
000012b0  xdc_runtime_IGateProvider_Interface__BASE__C                              
000012b4  xdc_runtime_IHeap_Interface__BASE__C                                      
000012b8  xdc_runtime_IModule_Interface__BASE__C                                    
000012bc  xdc_runtime_Memory_defaultHeapInstance__C                                 
000012c0  xdc_runtime_Startup_execImpl__C                                           
000012c4  xdc_runtime_Startup_maxPasses__C                                          
000012c8  xdc_runtime_Startup_sfxnRts__C                                            
000012cc  xdc_runtime_Startup_sfxnTab__C                                            
000012d0  xdc_runtime_Startup_startModsFxn__C                                       
000012d4  xdc_runtime_SysCallback_abortFxn__C                                       
000012d8  xdc_runtime_SysCallback_exitFxn__C                                        
000012dc  xdc_runtime_System_abortFxn__C                                            
000012e0  xdc_runtime_System_exitFxn__C                                             
000012e4  xdc_runtime_System_maxAtexitHandlers__C                                   
000012e8  xdc_runtime_Text_charTab__C                                               
000012ec  xdc_runtime_Text_nameEmpty__C                                             
000012f0  xdc_runtime_Text_nameStatic__C                                            
000012f4  xdc_runtime_Text_nameUnknown__C                                           
000012f8  xdc_runtime_Error_maxDepth__C                                             
000012fa  xdc_runtime_Memory_Module__id__C                                          
000012fc  xdc_runtime_Text_charCnt__C                                               
000012fe  xdc_runtime_Text_isLoaded__C                                              
00001300  xdc_runtime_Error_policy__C                                               
00001304  ti_sysbios_rom_ROM_ti_sysbios_family_arm_cc26xx_Timer_getCount64__E       
00001308  ti_sysbios_rom_ROM_ti_sysbios_family_arm_cc26xx_Timer_getCurrentTick__E   
0000130c  ti_sysbios_rom_ROM_ti_sysbios_family_arm_cc26xx_Timer_getMaxTicks__E      
00001310  ti_sysbios_rom_ROM_ti_sysbios_family_arm_cc26xx_Timer_initDevice__I       
00001314  ti_sysbios_rom_ROM_ti_sysbios_family_arm_cc26xx_Timer_setNextTick__E      
00001318  ti_sysbios_rom_ROM_ti_sysbios_family_arm_cc26xx_Timer_setThreshold__I     
0000131c  ti_sysbios_rom_ROM_ti_sysbios_family_arm_cc26xx_Timer_start__E            
00001320  ti_sysbios_rom_ROM_ti_sysbios_family_arm_cc26xx_TimestampProvider_get32__E
00001324  ti_sysbios_rom_ROM_xdc_runtime_Startup_getState__I                        
00001328  ti_sysbios_rom_ROM_xdc_runtime_System_SupportProxy_abort__E               
0000132c  ti_sysbios_rom_ROM_xdc_runtime_System_SupportProxy_exit__E                
00001331  temperatureThread                                                         
00001469  UARTCC26XX_read                                                           
0000159f  _nop                                                                      
000015a1  Power_init                                                                
000017e1  GPIO_setConfig                                                            
000018f1  __aeabi_fsub                                                              
000018f5  __aeabi_fadd                                                              
00001add  PowerCC26XX_standbyPolicy                                                 
00001bc5  UARTCC26XX_write                                                          
00001ca7  I2CCC26XX_transfer                                                        
00001d7d  Power_releaseDependency                                                   
00001e39  Power_setDependency                                                       
00001eed  NOROM_SetupTrimDevice                                                     
00001eed  ti_sysbios_family_arm_cc26xx_Boot_trimDevice                              
00001f99  GPIO_init                                                                 
000020e5  PIN_open                                                                  
00002185  __TI_auto_init                                                            
00002225  consoleThread                                                             
000022c1  __aeabi_memcpy                                                            
000022c1  __aeabi_memcpy4                                                           
000022c1  __aeabi_memcpy8                                                           
000022c1  memcpy                                                                    
0000248d  ti_sysbios_knl_Clock_workFuncDynamic__E                                   
00002525  __aeabi_uldivmod                                                          
000025bb  __aeabi_fdiv                                                              
0000264d  I2CCC26XX_cancel                                                          
0000276d  ti_sysbios_family_arm_cc26xx_Timer_start__E                               
000027fd  UARTCC26XX_writeCancel                                                    
0000288b  __aeabi_idiv0                                                             
0000288b  __aeabi_ldiv0                                                             
00002919  CC2640R2_LAUNCHXL_sendExtFlashByte                                        
0000299d  UARTCC26XX_close                                                          
00002aa1  __aeabi_fmul                                                              
00002b1b  __aeabi_memclr                                                            
00002b1b  __aeabi_memclr4                                                           
00002b1b  __aeabi_memclr8                                                           
00002b1d  __aeabi_memset                                                            
00002b1d  __aeabi_memset4                                                           
00002b1d  __aeabi_memset8                                                           
00002b23  memset                                                                    
00002b95  NOROM_SysCtrlAdjustRechargeAfterPowerDown                                 
00002c75  NOROM_OSCHF_AttemptToSwitchToXosc                                         
00002ce1  PowerCC26XX_initiateCalibration                                           
00002db9  main                                                                      
00002e8d  NOROM_SysCtrl_DCDC_VoltageConditionalControl                              
00002ef5  PIN_add                                                                   
00002f5d  __TI_decompress_lzss                                                      
00003027  ti_sysbios_BIOS_nullFunc__I                                               
00003029  PowerCC26XX_calibrate                                                     
00003089  setupTimer                                                                
000030e9  UARTCC26XX_swiIntFxn                                                      
00003147  xdc_runtime_SysCallback_defaultAbort                                      
00003149  I2CCC26XX_close                                                           
000031a5  PowerCC26XX_RCOSC_clockFunc                                               
00003201  ti_sysbios_heaps_HeapMem_initPrimary__I                                   
0000325d  xdc_runtime_Startup_getState__I                                           
000032b9  PIN_remove                                                                
00003311  UARTCC26XX_control                                                        
000033bf  xdc_runtime_SysCallback_defaultExit                                       
000033c1  GPIO_write                                                                
00003415  ClockP_construct                                                          
000034b5  CC2640R2_LAUNCHXL_wakeUpExtFlash                                          
00003501  copy_in                                                                   
0000354d  UARTCC26XX_readCancel                                                     
00003599  GPIO_enableInt                                                            
000035e1  PIN_setOutputEnable                                                       
00003629  ti_sysbios_family_arm_cc26xx_Timer_setThreshold__I                        
000036fd  NOROM_OSCHF_SwitchToRcOscTurnOffXosc                                      
00003741  RingBuf_put                                                               
00003785  ResetISR                                                                  
00003785  _c_int00                                                                  
000037c9  CC2640R2_LAUNCHXL_shutDownExtFlash                                        
00003809  I2C_init                                                                  
00003849  I2C_open                                                                  
000038c9  UART_init                                                                 
00003909  UART_open                                                                 
00003949  HwiP_construct                                                            
00003987  RingBuf_get                                                               
000039c5  GPIO_setCallback                                                          
00003a01  NOROM_I2CMasterInitExpClk                                                 
00003a3d  NOROM_OSC_HPOSCRelativeFrequencyOffsetGet                                 
00003a79  SwiP_construct                                                            
00003af1  sleep                                                                     
00003b2d  ti_sysbios_family_arm_m3_Hwi_construct2__E                                
00003b69  PIN_setConfig                                                             
00003ba1  PIN_setInterrupt                                                          
00003bd9  PIN_setOutputValue                                                        
00003c11  __aeabi_f2iz                                                              
00003c49  __aeabi_i2f                                                               
00003c81  ti_sysbios_family_arm_cc26xx_Timer_setNextTick__E                         
00003cb9  Power_releaseConstraint                                                   
00003d21  ti_sysbios_family_arm_cc26xx_Timer_initDevice__I                          
00003d55  GPIO_hwiIntFxn                                                            
00003d85  PINCC26XX_setMux                                                          
00003db5  Power_setConstraint                                                       
00003de5  ti_sysbios_BIOS_atExitFunc__I                                             
00003e15  ti_sysbios_BIOS_startFunc__I                                              
00003e45  ti_sysbios_family_arm_cc26xx_Timer_getCurrentTick__E                      
00003ed1  NOROM_ChipInfo_GetChipFamily                                              
00003efd  SemaphoreP_constructBinary                                                
00003f29  SemaphoreP_createBinary                                                   
00003f81  ti_sysbios_knl_Clock_getTicksUntilInterrupt__E                            
00003fad  NOROM_ChipInfo_GetChipType                                                
00003fd5  Power_registerNotify                                                      
00003ffd  SafeHapiVoid                                                              
0000404d  List_remove                                                               
00004071  NOROM_OSCHF_TurnOnXosc                                                    
00004095  _pthread_cleanupFxn                                                       
000040b9  gpioButtonFxn                                                             
000040dd  ti_sysbios_BIOS_registerRTSLock__I                                        
00004101  ti_sysbios_BIOS_removeRTSLock__I                                          
00004125  ti_sysbios_family_arm_cc26xx_Timer_getMaxTicks__E                         
00004149  List_put                                                                  
0000416b  NOROM_UARTConfigSetExpClk                                                 
0000418d  NOROM_I2CMasterErr                                                        
000041ad  NOROM_UARTDisable                                                         
000041ed  Power_unregisterNotify                                                    
0000424d  ti_sysbios_BIOS_rtsLock__I                                                
0000426d  ti_sysbios_family_arm_cc26xx_Timer_dynamicStub__E                         
0000428d  xdc_runtime_Error_policyMin__E                                            
000042ad  PIN_close                                                                 
000042cb  Power_getTransitionLatency                                                
000042e9  CC2640R2_LAUNCHXL_initGeneral                                             
00004321  ti_sysbios_knl_Swi_construct2__E                                          
0000433d  NOROM_ChipInfo_GetPackageType                                             
00004355  PowerCC26XX_schedulerDisable                                              
0000436d  PowerCC26XX_schedulerRestore                                              
00004385  Power_idleFunc                                                            
0000439d  UART_Params_init                                                          
000043b5  _args_main                                                                
000043cd  __aeabi_lmul                                                              
000043e5  ti_sysbios_BIOS_rtsUnlock__I                                              
000043fd  ti_sysbios_knl_Swi_or__E                                                  
00004415  ti_sysbios_BIOS_errorRaiseHook__I                                         
0000442b  ti_sysbios_BIOS_exitFunc__I                                               
00004481  strlen                                                                    
00004495  ti_sysbios_family_arm_cc26xx_Timer_getCount64__E                          
000044a9  ti_sysbios_knl_Clock_doTick__I                                            
000044bd  RingBuf_construct                                                         
000044cf  SemaphoreP_pend                                                           
000044e1  xdc_runtime_Startup_exec__I                                               
000044f3  HwiP_Params_init                                                          
00004505  I2C_Params_init                                                           
00004515  PINCC26XX_getPinCount                                                     
00004525  SwiP_Params_init                                                          
00004555  NOROM_ThisLibraryIsFor_CC26x0R2_HaltIfViolated                            
00004563  NOROM_UARTCharGetNonBlocking                                              
00004571  NOROM_UARTCharPutNonBlocking                                              
0000458d  __TI_decompress_none                                                      
000045a9  ti_sysbios_family_arm_cc26xx_TimestampProvider_get32__E                   
000045a9  xdc_runtime_Timestamp_SupportProxy_get32__E__mangled__                    
000045b7  NOROM_CPUcpsid                                                            
000045c3  NOROM_CPUcpsie                                                            
000045cf  NOROM_OSC_HPOSCRelativeFrequencyOffsetToRFCoreFormatConvert               
000045db  PIN_registerIntCb                                                         
000045e9  Power_getConstraintMask                                                   
000045f5  Power_getDependencyCount                                                  
00004601  SemaphoreP_delete                                                         
0000460d  _register_lock                                                            
00004619  _register_unlock                                                          
00004625  __TI_zero_init                                                            
0000463d  ti_sysbios_knl_Swi_getTrigger__E                                          
00004649  ClockP_Params_init                                                        
00004653  I2CCC26XX_init                                                            
0000465d  I2C_transfer                                                              
00004667  UART_close                                                                
00004671  UART_read                                                                 
0000467b  UART_write                                                                
00004685  Board_init                                                                
0000468d  Board_initHook                                                            
0000469d  UARTCC26XX_init                                                           
000046b5  I2CCC26XX_control                                                         
000046bb  NOROM_CPUdelay                                                            
000046c1  UARTCC26XX_readPolling                                                    
000046c7  UARTCC26XX_writePolling                                                   
000046d1  ClockP_destruct                                                           
000046d5  ClockP_getCpuFreq                                                         
000046d9  ClockP_setTimeout                                                         
000046dd  ClockP_start                                                              
000046e1  ClockP_stop                                                               
000046e5  HwiP_destruct                                                             
000046e9  HwiP_disable                                                              
000046ed  HwiP_disableInterrupt                                                     
000046f1  HwiP_enableInterrupt                                                      
000046f5  SemaphoreP_destruct                                                       
000046f9  SemaphoreP_post                                                           
000046fd  SwiP_destruct                                                             
00004701  SwiP_disable                                                              
00004705  SwiP_getTrigger                                                           
00004709  SwiP_or                                                                   
0000470d  SwiP_post                                                                 
00004715  xdc_runtime_Startup_reset__I                                              
000048b0  helpPrompt                                                                
0000492a  resourceDB                                                                
00004976  cleanDisplay                                                              
00004a04  inPinTypes                                                                
00004a10  outPinStrengths                                                           
00004a1c  outPinTypes                                                               
00004a44  BoardGpioInitTable                                                        
00004a70  UARTCC26XX_fxnTable                                                       
00004a98  uartCC26XXHWAttrs                                                         
00004ac0  byeDisplay                                                                
00004ae7  xdc_runtime_Text_charTab__A                                               
00004ae8  UART_defaultParams                                                        
00004b0c  xdc_runtime_Startup_sfxnTab__A                                            
00004b30  consoleDisplay                                                            
00004b48  I2CCC26XX_fxnTable                                                        
00004b60  PowerCC26XX_config                                                        
00004b78  i2cCC26xxHWAttrs                                                          
00004b90  readErrDisplay                                                            
00004ba5  userPrompt                                                                
00004bbc  GPIOCC26XX_config                                                         
00004bd0  ADCBuf_count                                                              
00004bd1  ADC_count                                                                 
00004bd2  AESCCM_count                                                              
00004bd3  AESGCM_count                                                              
00004bd4  AESCBC_count                                                              
00004bd5  AESCTR_count                                                              
00004bd6  AESECB_count                                                              
00004bd7  AESCTRDRBG_count                                                          
00004bd8  TRNG_count                                                                
00004bd9  Display_count                                                             
00004bda  I2C_count                                                                 
00004bdb  I2S_count                                                                 
00004bdc  NVS_count                                                                 
00004bdd  PWM_count                                                                 
00004bde  SD_count                                                                  
00004bdf  SPI_count                                                                 
00004be0  UART_count                                                                
00004be1  Watchdog_count                                                            
00004be2  xdc_runtime_Startup_sfxnRts__A                                            
00004bf4  tempStartDisplay                                                          
00004c04  I2C_defaultParams                                                         
00004c14  I2C_config                                                                
00004c20  UART_config                                                               
00004c2c  xdc_runtime_Startup_firstFxns__A                                          
00004c40  PINCC26XX_hwAttrs                                                         
00004c50  ti_sysbios_knl_Idle_funcList__A                                           
00004c58  tempEndDisplay                                                            
00004c5d  tempMidDisplay                                                            
00004c64  ti_sysbios_family_arm_cc26xx_Timer_funcHookCH1__C                         
00004c68  ti_sysbios_family_arm_cc26xx_Timer_funcHookCH2__C                         
00004c6c  ti_sysbios_heaps_HeapMem_primaryHeapBaseAddr__C                           
00004c70  ti_sysbios_heaps_HeapMem_primaryHeapEndAddr__C                            
00004c74  ti_sysbios_knl_Clock_tickPeriod__C                                        
00004c78  ti_sysbios_knl_Task_Object__heap__C                                       
00004c80  __TI_static_base__                                                        
00004e58  __TI_Handler_Table_Base                                                   
00004e64  __TI_Handler_Table_Limit                                                  
00004ea0  __TI_CINIT_Base                                                           
00004f08  __TI_CINIT_Limit                                                          
0001ffa8  __ccfg                                                                    
10019b00  ti_sysbios_rom_cortexm_cc26xx_r2_CC26xx_REVISION__C                       
10019b05  ti_sysbios_knl_Semaphore_pend__E                                          
10019bf9  ti_sysbios_knl_Event_pend__E                                              
10019ce1  ti_sysbios_knl_Task_Instance_init__E                                      
10019dad  ti_sysbios_knl_Mailbox_Instance_init__E                                   
10019e75  ti_sysbios_family_arm_m3_Hwi_postInit__I                                  
10019f25  ti_sysbios_family_arm_cc26xx_Timer_periodicStub__E                        
10019fc1  ti_sysbios_family_arm_m3_Hwi_Instance_init__E                             
1001a059  ti_sysbios_knl_Task_Instance_finalize__E                                  
1001a0ed  ti_sysbios_knl_Mailbox_post__E                                            
1001a171  ti_sysbios_family_arm_m3_Hwi_initNVIC__E                                  
1001a1f1  ti_sysbios_knl_Clock_startI__E                                            
1001a271  ti_sysbios_knl_Task_postInit__I                                           
1001a2f1  ti_sysbios_knl_Clock_walkQueueDynamic__E                                  
1001a369  ti_sysbios_knl_Clock_workFunc__E                                          
1001a3e1  ti_sysbios_knl_Semaphore_post__E                                          
1001a455  ti_sysbios_knl_Event_post__E                                              
1001a4c5  ti_sysbios_knl_Mailbox_Instance_finalize__E                               
1001a535  ti_sysbios_knl_Mailbox_pend__E                                            
1001a5a5  ti_sysbios_knl_Task_sleep__E                                              
1001a615  ti_sysbios_heaps_HeapMem_allocUnprotected__E                              
1001a683  ti_sysbios_BIOS_linkedWithIncorrectBootLibrary__E                         
1001a685  ti_sysbios_knl_Semaphore_Instance_init__E                                 
1001a6ed  ti_sysbios_knl_Swi_restoreHwi__E                                          
1001a755  ti_sysbios_family_arm_m3_Hwi_Instance_finalize__E                         
1001a7b9  ti_sysbios_family_arm_m3_Hwi_Object__create__S                            
1001a81d  ti_sysbios_family_arm_m3_Hwi_dispatchC__I                                 
1001a881  ti_sysbios_hal_Hwi_create                                                 
1001a8e5  ti_sysbios_family_arm_m3_Hwi_create                                       
1001a945  ti_sysbios_knl_Mailbox_create                                             
1001a9a5  ti_sysbios_knl_Swi_Instance_init__E                                       
1001aa05  ti_sysbios_knl_Task_Module_startup__E                                     
1001aa61  ti_sysbios_knl_Task_startCore__E                                          
1001aabd  ti_sysbios_family_arm_m3_Hwi_construct                                    
1001ab15  ti_sysbios_heaps_HeapMem_alloc__E                                         
1001ab6d  ti_sysbios_heaps_HeapMem_freeUnprotected__E                               
1001abc5  ti_sysbios_knl_Mailbox_construct                                          
1001ac1d  ti_sysbios_knl_Swi_create                                                 
1001ac75  ti_sysbios_knl_Swi_run__I                                                 
1001accd  ti_sysbios_knl_Task_create                                                
1001ad25  ti_sysbios_knl_Swi_schedule__I                                            
1001ad79  ti_sysbios_knl_Swi_construct                                              
1001adc9  ti_sysbios_knl_Swi_runLoop__I                                             
1001ae19  ti_sysbios_knl_Task_construct                                             
1001ae69  ti_sysbios_knl_Task_schedule__I                                           
1001aeb5  ti_sysbios_family_arm_m3_Hwi_Module_startup__E                            
1001aefd  ti_sysbios_heaps_HeapMem_getStats__E                                      
1001af45  ti_sysbios_family_arm_m3_Hwi_disableInterrupt__E                          
1001af45  ti_sysbios_hal_Hwi_HwiProxy_disableInterrupt__E                           
1001af45  ti_sysbios_hal_Hwi_HwiProxy_disableInterrupt__E__mangled__                
1001af45  ti_sysbios_hal_Hwi_disableInterrupt__E                                    
1001af45  ti_sysbios_hal_Hwi_disableInterrupt__E                                    
1001af89  ti_sysbios_family_arm_m3_Hwi_enableInterrupt__E                           
1001af89  ti_sysbios_hal_Hwi_HwiProxy_enableInterrupt__E                            
1001af89  ti_sysbios_hal_Hwi_HwiProxy_enableInterrupt__E__mangled__                 
1001af89  ti_sysbios_hal_Hwi_enableInterrupt__E                                     
1001af89  ti_sysbios_hal_Hwi_enableInterrupt__E                                     
1001afcd  ti_sysbios_knl_Mailbox_Module_startup__E                                  
1001b011  ti_sysbios_knl_Swi_post__E                                                
1001b055  ti_sysbios_knl_Task_allBlockedFunction__I                                 
1001b099  ti_sysbios_family_arm_m3_Hwi_getStackInfo__E                              
1001b099  ti_sysbios_hal_Hwi_HwiProxy_getStackInfo__E                               
1001b099  ti_sysbios_hal_Hwi_HwiProxy_getStackInfo__E__mangled__                    
1001b099  ti_sysbios_hal_Hwi_getStackInfo__E                                        
1001b099  ti_sysbios_hal_Hwi_getStackInfo__E                                        
1001b0d9  ti_sysbios_knl_Task_yield__E                                              
1001b119  ti_sysbios_knl_Task_exit__E                                               
1001b153  ti_sysbios_gates_GateHwi_Instance_init__E                                 
1001b155  ti_sysbios_family_arm_m3_TaskSupport_start__E                             
1001b155  ti_sysbios_knl_Task_SupportProxy_start__E                                 
1001b155  ti_sysbios_knl_Task_SupportProxy_start__E__mangled__                      
1001b18d  ti_sysbios_heaps_HeapMem_Instance_init__E                                 
1001b1c5  ti_sysbios_knl_Clock_Instance_init__E                                     
1001b1fd  ti_sysbios_knl_Clock_create                                               
1001b235  ti_sysbios_heaps_HeapMem_init__I                                          
1001b269  ti_sysbios_knl_Clock_construct                                            
1001b29d  ClockP_getSystemTicks                                                     
1001b29d  ti_sysbios_knl_Clock_getTicks__E                                          
1001b2d1  ti_sysbios_knl_Semaphore_create                                           
1001b305  SwiP_restore                                                              
1001b305  ti_sysbios_knl_Swi_restore__E                                             
1001b339  ti_sysbios_knl_Task_blockI__E                                             
1001b36d  ti_sysbios_gates_GateMutex_Object__create__S                              
1001b39d  ti_sysbios_gates_GateMutex_create                                         
1001b3cd  ti_sysbios_gates_GateMutex_enter__E                                       
1001b3fd  ti_sysbios_heaps_HeapMem_free__E                                          
1001b42d  ti_sysbios_knl_Event_create                                               
1001b45d  ti_sysbios_knl_Semaphore_construct                                        
1001b48d  ti_sysbios_knl_Task_processVitalTaskFlag__I                               
1001b4bd  ti_sysbios_family_arm_cc26xx_Timer_postInit__I                            
1001b4e9  ti_sysbios_family_arm_cc26xx_Timer_startup__E                             
1001b4e9  ti_sysbios_knl_Clock_TimerProxy_startup__E                                
1001b4e9  ti_sysbios_knl_Clock_TimerProxy_startup__E__mangled__                     
1001b515  ti_sysbios_family_arm_m3_Hwi_Object__get__S                               
1001b541  ti_sysbios_gates_GateMutex_construct                                      
1001b56d  ti_sysbios_hal_Hwi_initStack                                              
1001b599  ti_sysbios_heaps_HeapMem_Object__create__S                                
1001b5c5  ti_sysbios_heaps_HeapMem_Object__get__S                                   
1001b5f1  ti_sysbios_knl_Event_construct                                            
1001b61d  ti_sysbios_knl_Event_pendTimeout__I                                       
1001b649  ti_sysbios_knl_Mailbox_Object__get__S                                     
1001b675  ti_sysbios_knl_Mailbox_postInit__I                                        
1001b6a1  ti_sysbios_knl_Queue_construct                                            
1001b6cd  ti_sysbios_knl_Queue_create                                               
1001b6f9  ti_sysbios_knl_Semaphore_pendTimeout__I                                   
1001b725  ti_sysbios_knl_Swi_Object__get__S                                         
1001b751  ti_sysbios_knl_Task_unblockI__E                                           
1001b77d  ti_sysbios_family_arm_cc26xx_TimestampProvider_get64__E                   
1001b77d  xdc_runtime_Timestamp_SupportProxy_get64__E                               
1001b77d  xdc_runtime_Timestamp_SupportProxy_get64__E__mangled__                    
1001b77d  xdc_runtime_Timestamp_get64__E                                            
1001b77d  xdc_runtime_Timestamp_get64__E                                            
1001b7a5  ti_sysbios_knl_Clock_addI__E                                              
1001b7cd  ti_sysbios_knl_Semaphore_Instance_finalize__E                             
1001b7f5  ti_sysbios_knl_Task_restore__E                                            
1001b81d  ti_sysbios_hal_Hwi_Instance_init__E                                       
1001b843  ti_sysbios_knl_Clock_logTick__E                                           
1001b845  ti_sysbios_family_arm_cc26xx_Timer_Module_startup__E                      
1001b869  ti_sysbios_gates_GateHwi_Object__create__S                                
1001b88d  ti_sysbios_BIOS_RtsGateProxy_Object__delete__S                            
1001b88d  ti_sysbios_gates_GateMutex_Object__delete__S                              
1001b88d  ti_sysbios_heaps_HeapMem_Module_GateProxy_Object__delete__S               
1001b8b1  ti_sysbios_knl_Clock_Object__delete__S                                    
1001b8d5  ti_sysbios_knl_Semaphore_Object__delete__S                                
1001b8f9  ti_sysbios_family_arm_cc26xx_Timer_Module__startupDone__S                 
1001b8f9  ti_sysbios_knl_Clock_TimerProxy_Module__startupDone__S                    
1001b8f9  ti_sysbios_knl_Clock_TimerProxy_Module__startupDone__S__mangled__         
1001b919  ti_sysbios_family_arm_cc26xx_TimestampProvider_Module_startup__E          
1001b939  ti_sysbios_family_arm_m3_Hwi_Module__startupDone__S                       
1001b939  ti_sysbios_hal_Hwi_HwiProxy_Module__startupDone__S                        
1001b939  ti_sysbios_hal_Hwi_HwiProxy_Module__startupDone__S__mangled__             
1001b959  ti_sysbios_family_arm_m3_Hwi_Object__delete__S                            
1001b959  ti_sysbios_hal_Hwi_HwiProxy_Object__delete__S                             
1001b979  ti_sysbios_family_arm_m3_Hwi_excHandler__I                                
1001b999  ti_sysbios_gates_GateHwi_Handle__label__S                                 
1001b999  xdc_runtime_Main_Module_GateProxy_Handle__label__S                        
1001b999  xdc_runtime_System_Module_GateProxy_Handle__label__S                      
1001b999  xdc_runtime_System_Module_GateProxy_Handle__label__S__mangled__           
1001b9b9  ti_sysbios_gates_GateHwi_Object__delete__S                                
1001b9b9  xdc_runtime_System_Module_GateProxy_Object__delete__S                     
1001b9d9  ti_sysbios_BIOS_RtsGateProxy_Handle__label__S                             
1001b9d9  ti_sysbios_BIOS_RtsGateProxy_Handle__label__S__mangled__                  
1001b9d9  ti_sysbios_gates_GateMutex_Handle__label__S                               
1001b9d9  ti_sysbios_heaps_HeapMem_Module_GateProxy_Handle__label__S                
1001b9d9  ti_sysbios_heaps_HeapMem_Module_GateProxy_Handle__label__S__mangled__     
1001b9f9  ti_sysbios_gates_GateMutex_Object__destruct__S                            
1001ba19  ti_sysbios_hal_Hwi_Object__delete__S                                      
1001ba39  ti_sysbios_heaps_HeapMem_Handle__label__S                                 
1001ba39  xdc_runtime_Memory_HeapProxy_Handle__label__S                             
1001ba39  xdc_runtime_Memory_HeapProxy_Handle__label__S__mangled__                  
1001ba59  ti_sysbios_heaps_HeapMem_Object__delete__S                                
1001ba59  xdc_runtime_Memory_HeapProxy_Object__delete__S                            
1001ba79  ti_sysbios_knl_Clock_Module_startup__E                                    
1001ba99  ti_sysbios_knl_Clock_Object__destruct__S                                  
1001bab9  ti_sysbios_knl_Clock_stop__E                                              
1001bad9  ti_sysbios_knl_Event_Object__delete__S                                    
1001baf9  ti_sysbios_knl_Event_checkEvents__I                                       
1001bb19  ti_sysbios_knl_Idle_run__E                                                
1001bb39  ti_sysbios_knl_Mailbox_Object__delete__S                                  
1001bb59  ti_sysbios_knl_Queue_Object__delete__S                                    
1001bb79  ti_sysbios_knl_Queue_Object__get__S                                       
1001bb99  ti_sysbios_knl_Semaphore_Object__destruct__S                              
1001bbb9  ti_sysbios_knl_Swi_Object__delete__S                                      
1001bbd9  ti_sysbios_knl_Task_Object__delete__S                                     
1001bbf9  ti_sysbios_knl_Task_Object__get__S                                        
1001bc19  ti_sysbios_knl_Task_restoreHwi__E                                         
1001bc39  ti_sysbios_family_arm_m3_Hwi_Object__destruct__S                          
1001bc55  ti_sysbios_family_arm_m3_Hwi_setPriority__E                               
1001bc71  ti_sysbios_gates_GateMutex_Instance_init__E                               
1001bc8d  ti_sysbios_hal_Hwi_HwiProxy_create                                        
1001bca9  ti_sysbios_knl_Clock_scheduleNextTick__E                                  
1001bcc5  ti_sysbios_knl_Event_Object__destruct__S                                  
1001bce1  ti_sysbios_knl_Mailbox_Object__destruct__S                                
1001bcfd  ti_sysbios_knl_Queue_Object__destruct__S                                  
1001bd19  ti_sysbios_knl_Queue_get__E                                               
1001bd35  ti_sysbios_knl_Queue_put__E                                               
1001bd51  ti_sysbios_knl_Swi_Object__destruct__S                                    
1001bd6d  ti_sysbios_knl_Task_Object__destruct__S                                   
1001bd89  ti_sysbios_knl_Task_enter__I                                              
1001bda5  ti_sysbios_knl_Task_sleepTimeout__I                                       
1001bdbf  ti_sysbios_knl_Clock_triggerFunc__I                                       
1001bdc1  ti_sysbios_family_arm_m3_Hwi_plug__E                                      
1001bdd9  ti_sysbios_gates_GateMutex_leave__E                                       
1001bdf1  ti_sysbios_knl_Task_unblock__E                                            
1001be09  ti_sysbios_knl_Clock_Instance_finalize__E                                 
1001be1f  ti_sysbios_knl_Clock_start__E                                             
1001be35  ti_sysbios_family_arm_m3_Hwi_switchFromBootStack__E                       
1001be35  ti_sysbios_hal_Hwi_HwiProxy_switchFromBootStack__E                        
1001be35  ti_sysbios_hal_Hwi_HwiProxy_switchFromBootStack__E__mangled__             
1001be35  ti_sysbios_hal_Hwi_switchFromBootStack__E                                 
1001be35  ti_sysbios_hal_Hwi_switchFromBootStack__E                                 
1001be49  ti_sysbios_knl_Event_Instance_init__E                                     
1001be5d  ti_sysbios_hal_Hwi_Module_startup__E                                      
1001be6f  ti_sysbios_knl_Event_sync__E                                              
1001be81  ti_sysbios_BIOS_exit__E                                                   
1001be91  ti_sysbios_BIOS_getCpuFreq__E                                             
1001bea1  ti_sysbios_BIOS_setThreadType__E                                          
1001beb1  ti_sysbios_BIOS_start__E                                                  
1001bec1  ti_sysbios_gates_GateMutex_Instance_finalize__E                           
1001bed1  ti_sysbios_hal_Hwi_HwiProxy_Object__create__S                             
1001bee1  ti_sysbios_knl_Clock_TimerProxy_getCurrentTick__E                         
1001bef1  ti_sysbios_knl_Clock_TimerProxy_getMaxTicks__E                            
1001bf01  ti_sysbios_knl_Clock_TimerProxy_setNextTick__E                            
1001bf11  ti_sysbios_knl_Swi_disable__E                                             
1001bf21  ti_sysbios_knl_Swi_enabled__E                                             
1001bf31  ti_sysbios_knl_Task_disable__E                                            
1001bf41  ti_sysbios_heaps_HeapMem_restore__E                                       
1001bf4f  ti_sysbios_knl_Queue_empty__E                                             
1001bf5d  ti_sysbios_knl_Queue_remove__E                                            
1001bf6b  ti_sysbios_family_arm_cc26xx_TimestampProvider_getFreq__E                 
1001bf6b  xdc_runtime_Timestamp_SupportProxy_getFreq__E                             
1001bf6b  xdc_runtime_Timestamp_SupportProxy_getFreq__E__mangled__                  
1001bf6b  xdc_runtime_Timestamp_getFreq__E                                          
1001bf6b  xdc_runtime_Timestamp_getFreq__E                                          
1001bf77  ti_sysbios_knl_Swi_Instance_finalize__E                                   
1001bf79  ti_sysbios_family_arm_m3_Hwi_Params__init__S                              
1001bf79  ti_sysbios_hal_Hwi_HwiProxy_Params__init__S                               
1001bf79  ti_sysbios_hal_Hwi_HwiProxy_Params__init__S__mangled__                    
1001bf85  ti_sysbios_family_arm_m3_Hwi_disableFxn__E                                
1001bf91  ti_sysbios_family_arm_m3_Hwi_enableFxn__E                                 
1001bf9d  ti_sysbios_family_arm_m3_TaskSupport_getStackAlignment__E                 
1001bf9d  ti_sysbios_knl_Task_SupportProxy_getStackAlignment__E                     
1001bf9d  ti_sysbios_knl_Task_SupportProxy_getStackAlignment__E__mangled__          
1001bfa9  ti_sysbios_gates_GateHwi_enter__E                                         
1001bfb5  ti_sysbios_BIOS_RtsGateProxy_Params__init__S                              
1001bfb5  ti_sysbios_BIOS_RtsGateProxy_Params__init__S__mangled__                   
1001bfb5  ti_sysbios_gates_GateMutex_Params__init__S                                
1001bfb5  ti_sysbios_heaps_HeapMem_Module_GateProxy_Params__init__S                 
1001bfb5  ti_sysbios_heaps_HeapMem_Module_GateProxy_Params__init__S__mangled__      
1001bfc1  ti_sysbios_knl_Clock_Params__init__S                                      
1001bfcd  ti_sysbios_knl_Clock_getTimerHandle__E                                    
1001bfd9  ti_sysbios_knl_Event_Params__init__S                                      
1001bfe5  ti_sysbios_knl_Mailbox_Params__init__S                                    
1001bff1  ti_sysbios_knl_Queue_dequeue__E                                           
1001bffd  ti_sysbios_knl_Queue_enqueue__E                                           
1001c009  ti_sysbios_knl_Semaphore_Params__init__S                                  
1001c015  ti_sysbios_knl_Swi_Params__init__S                                        
1001c021  ti_sysbios_knl_Task_Params__init__S                                       
1001c02d  ti_sysbios_knl_Task_self__E                                               
1001c039  ti_sysbios_hal_Hwi_Instance_finalize__E                                   
1001c043  ti_sysbios_family_arm_m3_Hwi_doSwiRestore__I                              
1001c04b  ti_sysbios_family_arm_m3_Hwi_startup__E                                   
1001c04b  ti_sysbios_hal_Hwi_HwiProxy_startup__E                                    
1001c04b  ti_sysbios_hal_Hwi_HwiProxy_startup__E__mangled__                         
1001c04b  ti_sysbios_hal_Hwi_startup__E                                             
1001c04b  ti_sysbios_hal_Hwi_startup__E                                             
1001c053  ti_sysbios_knl_Idle_loop__E                                               
1001c05b  ti_sysbios_family_arm_m3_Hwi_doTaskRestore__I                             
1001c061  HwiP_restore                                                              
1001c061  ti_sysbios_family_arm_m3_Hwi_restoreFxn__E                                
1001c067  ti_sysbios_gates_GateHwi_leave__E                                         
1001c06d  ti_sysbios_heaps_HeapMem_isBlocking__E                                    
1001c073  ti_sysbios_knl_Queue_Instance_init__E                                     
1001c079  ti_sysbios_knl_Queue_elemClear__E                                         
1001c07f  ti_sysbios_knl_Swi_Module_startup__E                                      
1001c085  ti_sysbios_knl_Swi_startup__E                                             
1001c08b  ti_sysbios_knl_Task_enable__E                                             
1001c091  ti_sysbios_BIOS_RtsGateProxy_enter__E                                     
1001c095  ti_sysbios_BIOS_RtsGateProxy_leave__E                                     
1001c099  ti_sysbios_family_arm_cc26xx_Timer_getExpiredTicks__E                     
1001c09d  ti_sysbios_family_arm_cc26xx_Timer_getPeriod__E                           
1001c0a1  ti_sysbios_family_arm_cc26xx_Timer_setPeriod__E                           
1001c0a5  ti_sysbios_family_arm_m3_Hwi_delete                                       
1001c0a9  ti_sysbios_family_arm_m3_Hwi_destruct                                     
1001c0ad  ti_sysbios_family_arm_m3_TaskSupport_Module__startupDone__S               
1001c0ad  ti_sysbios_knl_Task_SupportProxy_Module__startupDone__S                   
1001c0ad  ti_sysbios_knl_Task_SupportProxy_Module__startupDone__S__mangled__        
1001c0b1  ti_sysbios_gates_GateHwi_query__E                                         
1001c0b1  xdc_runtime_Main_Module_GateProxy_query__E                                
1001c0b1  xdc_runtime_System_Module_GateProxy_query__E                              
1001c0b1  xdc_runtime_System_Module_GateProxy_query__E__mangled__                   
1001c0b5  ti_sysbios_gates_GateMutex_delete                                         
1001c0b9  ti_sysbios_gates_GateMutex_destruct                                       
1001c0bd  ti_sysbios_BIOS_RtsGateProxy_query__E                                     
1001c0bd  ti_sysbios_BIOS_RtsGateProxy_query__E__mangled__                          
1001c0bd  ti_sysbios_gates_GateMutex_query__E                                       
1001c0bd  ti_sysbios_heaps_HeapMem_Module_GateProxy_query__E                        
1001c0bd  ti_sysbios_heaps_HeapMem_Module_GateProxy_query__E__mangled__             
1001c0c1  ti_sysbios_hal_Hwi_HwiProxy_delete                                        
1001c0c5  ti_sysbios_hal_Hwi_delete                                                 
1001c0c9  ti_sysbios_heaps_HeapMem_Module_GateProxy_enter__E                        
1001c0cd  ti_sysbios_heaps_HeapMem_Module_GateProxy_leave__E                        
1001c0d1  ti_sysbios_knl_Clock_TimerProxy_getExpiredTicks__E                        
1001c0d5  ti_sysbios_knl_Clock_TimerProxy_getPeriod__E                              
1001c0d9  ti_sysbios_knl_Clock_delete                                               
1001c0dd  ti_sysbios_knl_Clock_destruct                                             
1001c0e1  ti_sysbios_knl_Clock_removeI__E                                           
1001c0e5  ti_sysbios_knl_Clock_setTimeout__E                                        
1001c0e9  ti_sysbios_knl_Event_delete                                               
1001c0ed  ti_sysbios_knl_Event_destruct                                             
1001c0f1  ti_sysbios_knl_Mailbox_delete                                             
1001c0f5  ti_sysbios_knl_Mailbox_destruct                                           
1001c0f9  ti_sysbios_knl_Queue_delete                                               
1001c0fd  ti_sysbios_knl_Queue_destruct                                             
1001c101  ti_sysbios_knl_Queue_head__E                                              
1001c105  ti_sysbios_knl_Queue_next__E                                              
1001c109  ti_sysbios_knl_Semaphore_delete                                           
1001c10d  ti_sysbios_knl_Semaphore_destruct                                         
1001c111  ti_sysbios_knl_Swi_delete                                                 
1001c115  ti_sysbios_knl_Swi_destruct                                               
1001c119  ti_sysbios_knl_Swi_postInit__I                                            
1001c11d  ti_sysbios_knl_Task_delete                                                
1001c121  ti_sysbios_knl_Task_destruct                                              
1001c125  ti_sysbios_knl_Task_startup__E                                            
1001c129  xdc_runtime_Startup_startMods__I                                          
1001c2c9  xdc_runtime_Core_createObject__I                                          
1001c349  xdc_runtime_Memory_alloc__E                                               
1001c3b5  xdc_runtime_Core_deleteObject__I                                          
1001c413  xdc_runtime_Error_policySpin__E                                           
1001c415  xdc_runtime_Startup_exec__E                                               
1001c465  xdc_runtime_Assert_raise__I                                               
1001c4ad  xdc_runtime_Core_assignParams__I                                          
1001c4f5  xdc_runtime_Core_constructObject__I                                       
1001c581  xdc_runtime_System_atexit__E                                              
1001c5b9  xdc_runtime_Core_assignLabel__I                                           
1001c5ed  xdc_runtime_System_processAtExit__E                                       
1001c621  xdc_runtime_Text_cordText__E                                              
1001c64d  xdc_runtime_System_abort__E                                               
1001c66d  xdc_runtime_Error_raiseX__E                                               
1001c689  xdc_runtime_Memory_valloc__E                                              
1001c6a5  xdc_runtime_Core_destructObject__I                                        
1001c6bd  xdc_runtime_Error_check__E                                                
1001c6d5  xdc_runtime_System_exit__E                                                
1001c6ed  xdc_runtime_Text_ropeText__E                                              
1001c705  xdc_runtime_Memory_free__E                                                
1001c715  xdc_runtime_SysCallback_abort__E                                          
1001c715  xdc_runtime_System_SupportProxy_abort__E                                  
1001c725  xdc_runtime_SysCallback_exit__E                                           
1001c725  xdc_runtime_System_SupportProxy_exit__E                                   
1001c735  xdc_runtime_Timestamp_SupportProxy_get32__E                               
1001c735  xdc_runtime_Timestamp_get32__E                                            
1001c735  xdc_runtime_Timestamp_get32__E                                            
1001c751  xdc_runtime_Memory_calloc__E                                              
1001c75d  xdc_runtime_Memory_getMaxDefaultTypeAlign__E                              
1001c769  xdc_runtime_Startup_rtsDone__E                                            
1001c775  xdc_runtime_Memory_HeapProxy_alloc__E                                     
1001c77f  xdc_runtime_Memory_HeapProxy_free__E                                      
1001c789  xdc_runtime_Gate_leaveSystem__E                                           
1001c78f  xdc_runtime_System_Module_startup__E                                      
1001c795  xdc_runtime_Gate_enterSystem__E                                           
1001c799  xdc_runtime_System_Module_GateProxy_enter__E                              
1001c79d  xdc_runtime_System_Module_GateProxy_leave__E                              
1001c7a1  xdc_runtime_System_abortSpin__E                                           
1001c7a3  xdc_runtime_System_exitSpin__E                                            
1001c7a5  ti_sysbios_family_arm_m3_Hwi_dispatch__I                                  
1001c86d  ti_sysbios_family_arm_m3_TaskSupport_buildTaskStack                       
1001c8b9  ti_sysbios_family_arm_m3_Hwi_initStacks__E                                
1001c901  ti_sysbios_family_arm_m3_Hwi_excHandlerAsm__I                             
1001c921  ti_sysbios_family_xxx_Hwi_switchAndRunFunc                                
1001c93f  ti_sysbios_family_arm_m3_Hwi_pendSV__I                                    
1001c957  ti_sysbios_family_arm_m3_Hwi_return                                       
1001c959  ti_sysbios_family_arm_m3_TaskSupport_glue                                 
1001c969  ti_sysbios_family_arm_m3_TaskSupport_swap__E                              
1001c969  ti_sysbios_knl_Task_SupportProxy_swap__E                                  
1001c969  ti_sysbios_knl_Task_SupportProxy_swap__E__mangled__                       
1001c971  ti_sysbios_knl_Task_swapReturn                                            
1001c978  ti_sysbios_knl_Task_Object__PARAMS__C                                     
1001c9b4  ti_sysbios_knl_Mailbox_Object__PARAMS__C                                  
1001c9e8  ti_sysbios_family_arm_m3_Hwi_Object__PARAMS__C                            
1001ca18  ti_sysbios_hal_Hwi_Object__PARAMS__C                                      
1001ca44  ti_sysbios_knl_Swi_Object__PARAMS__C                                      
1001ca6c  ti_sysbios_heaps_HeapMem_Object__PARAMS__C                                
1001ca90  ti_sysbios_knl_Clock_Object__PARAMS__C                                    
1001cab4  ti_sysbios_knl_Semaphore_Object__PARAMS__C                                
1001cad8  ti_sysbios_gates_GateHwi_Object__PARAMS__C                                
1001caf0  ti_sysbios_gates_GateMutex_Object__PARAMS__C                              
1001cb08  ti_sysbios_knl_Event_Object__PARAMS__C                                    
1001cb20  ti_sysbios_knl_Queue_Object__PARAMS__C                                    
1001cb68  ti_sysbios_gates_GateMutex_Instance_State_sem__O                          
1001cb6c  ti_sysbios_knl_Clock_Module_State_clockQ__O                               
1001cb70  ti_sysbios_knl_Event_Instance_State_pendQ__O                              
1001cb74  ti_sysbios_knl_Mailbox_Instance_State_dataQue__O                          
1001cb78  ti_sysbios_knl_Mailbox_Instance_State_dataSem__O                          
1001cb7c  ti_sysbios_knl_Mailbox_Instance_State_freeQue__O                          
1001cb80  ti_sysbios_knl_Mailbox_Instance_State_freeSem__O                          
1001cb84  ti_sysbios_knl_Semaphore_Instance_State_pendQ__O                          
1001cb88  ti_sysbios_knl_Task_Module_State_inactiveQ__O                             
20000000  ti_sysbios_family_arm_m3_Hwi_ramVectors                                   
20000100  ti_sysbios_knl_Task_Module__state__V                                      
20000144  ti_sysbios_family_arm_m3_Hwi_Module__state__V                             
20000178  ti_sysbios_knl_Clock_Module__state__V                                     
200001a4  ti_sysbios_BIOS_Module__state__V                                          
200001c8  ti_sysbios_knl_Swi_Module__state__V                                       
200001e4  ti_sysbios_family_arm_cc26xx_Timer_Module__state__V                       
200001ec  ti_sysbios_family_arm_cc26xx_TimestampProvider_Module__state__V           
200001f0  xdc_runtime_Startup_Module__state__V                                      
200001f8  xdc_runtime_System_Module__state__V                                       
20000200  xdc_runtime_Memory_Module__state__V                                       
20000204  xdc_runtime_Error_Module__state__V                                        
20000208  __primary_heap_start__                                                    
20001208  __primary_heap_end__                                                      
20001208  pinUpperBound                                                             
2000120c  pinLowerBound                                                             
200012a0  pinHandleTable                                                            
2000131c  PowerCC26XX_module                                                        
200014b8  ti_sysbios_gates_GateMutex_Object__table__V                               
2000150c  ti_sysbios_knl_Task_Object__table__V                                      
20001558  ti_sysbios_family_arm_cc26xx_Timer_Object__table__V                       
200015e0  gpioPinConfigs                                                            
20001610  ti_sysbios_knl_Swi_Module_State_0_readyQ__A                               
20001640  ti_sysbios_knl_Swi_Object__table__V                                       
20001670  ti_sysbios_knl_Task_Module_State_0_readyQ__A                              
200016a0  ti_sysbios_knl_Clock_Object__table__V                                     
200016c0  xdc_runtime_Error_IgnoreBlock                                             
200016e0  ti_sysbios_family_arm_m3_Hwi_Object__table__V                             
200016f8  ti_sysbios_heaps_HeapMem_Object__table__V                                 
20001710  gpioCallbackFunctions                                                     
20001720  _lock                                                                     
20001724  _unlock                                                                   
20001728  ti_sysbios_family_arm_m3_Hwi_Module__root__V                              
20001730  ti_sysbios_gates_GateHwi_Module__root__V                                  
20001738  ti_sysbios_gates_GateMutex_Module__root__V                                
20001740  ti_sysbios_hal_Hwi_Module__root__V                                        
20001748  ti_sysbios_heaps_HeapMem_Module__root__V                                  
20001750  ti_sysbios_knl_Clock_Module__root__V                                      
20001758  ti_sysbios_knl_Event_Module__root__V                                      
20001760  ti_sysbios_knl_Mailbox_Module__root__V                                    
20001768  ti_sysbios_knl_Queue_Module__root__V                                      
20001770  ti_sysbios_knl_Semaphore_Module__root__V                                  
20001778  ti_sysbios_knl_Swi_Module__root__V                                        
20001780  ti_sysbios_knl_Task_Module__root__V                                       
20001788  xdc_runtime_System_Module_State_0_atexitHandlers__A                       
20001790  main_func_sp                                                              
20001794  ti_sysbios_family_arm_m3_Hwi_Module_State_0_excContext__A                 
20001798  ti_sysbios_family_arm_m3_Hwi_Module_State_0_excStack__A                   
2000179c  ti_sysbios_knl_Task_Module_State_0_idleTask__A                            
200017a0  ti_sysbios_family_arm_m3_Hwi_Module_State_0_excActive__A                  
200017a2  uartEnabled                                                               
200017a8  ti_sysbios_knl_Task_Instance_State_0_stack__A                             
200019a8  uartCC26XXObjects                                                         
20001ad4  i2cCC26xxObjects                                                          
20001bb4  ti_sysbios_family_arm_m3_Hwi_dispatchTable                                
20001c7c  uartCC26XXRingBuffer                                                      
20001cb0  PowerCC26XX_taskKey                                                       
20001cb4  PowerCC26XX_swiKey                                                        
20001cc0  ClockP_tickPeriod                                                         
20001cc4  consoleHandle                                                             
20001cc8  consoleSem                                                                
20001ccc  temperatureC                                                              
20001cd0  temperatureF                                                              
20001cd4  temperatureHandle                                                         
20001cd8  driverlib_release_0_56883                                                 
20004c00  __stack                                                                   
20005000  __STACK_END                                                               
e000e000  ti_sysbios_family_arm_m3_Hwi_nvic                                         
ffffffff  __TI_pprof_out_hndl                                                       
ffffffff  __TI_prof_data_size                                                       
ffffffff  __TI_prof_data_start                                                      
ffffffff  __binit__                                                                 
ffffffff  __c_args__                                                                
ffffffff  binit                                                                     
UNDEFED   SHT$$INIT_ARRAY$$Base                                                     
UNDEFED   SHT$$INIT_ARRAY$$Limit                                                    

[824 symbols]
